ARM Linker, 5.03 [Build 76] [MDK-ARM Standard]

==============================================================================

Section Cross References

    startup_stm32f10x_hd.o(STACK) refers (Special) to heapauxi.o(.text) for __use_two_region_memory
    startup_stm32f10x_hd.o(HEAP) refers (Special) to heapauxi.o(.text) for __use_two_region_memory
    startup_stm32f10x_hd.o(RESET) refers (Special) to heapauxi.o(.text) for __use_two_region_memory
    startup_stm32f10x_hd.o(RESET) refers to startup_stm32f10x_hd.o(STACK) for __initial_sp
    startup_stm32f10x_hd.o(RESET) refers to startup_stm32f10x_hd.o(.text) for Reset_Handler
    startup_stm32f10x_hd.o(RESET) refers to stm32f10x_it.o(.text) for NMI_Handler
    startup_stm32f10x_hd.o(RESET) refers to rtc_device_api.o(.text) for RTC_IRQHandler
    startup_stm32f10x_hd.o(RESET) refers to uart_api.o(.text) for USART1_IRQHandler
    startup_stm32f10x_hd.o(RESET) refers to sdio_sdcard.o(.text) for SDIO_IRQHandler
    startup_stm32f10x_hd.o(.text) refers (Special) to heapauxi.o(.text) for __use_two_region_memory
    startup_stm32f10x_hd.o(.text) refers to system_stm32f10x.o(.text) for SystemInit
    startup_stm32f10x_hd.o(.text) refers to __main.o(!!!main) for __main
    startup_stm32f10x_hd.o(.text) refers to startup_stm32f10x_hd.o(HEAP) for Heap_Mem
    startup_stm32f10x_hd.o(.text) refers to startup_stm32f10x_hd.o(STACK) for Stack_Mem
    stm32f10x_gpio.o(.text) refers to stm32f10x_rcc.o(.text) for RCC_APB2PeriphResetCmd
    stm32f10x_rcc.o(.text) refers to stm32f10x_rcc.o(.data) for APBAHBPrescTable
    stm32f10x_spi.o(.text) refers to stm32f10x_rcc.o(.text) for RCC_APB2PeriphResetCmd
    stm32f10x_usart.o(.text) refers to stm32f10x_rcc.o(.text) for RCC_APB2PeriphResetCmd
    stm32f10x_bkp.o(.text) refers to stm32f10x_rcc.o(.text) for RCC_BackupResetCmd
    stm32f10x_pwr.o(.text) refers to stm32f10x_rcc.o(.text) for RCC_APB1PeriphResetCmd
    stm32f10x_it.o(.text) refers to kernel_ui_api.o(.text) for kernel_err_report
    stm32f10x_it.o(.text) refers to time_api.o(.text) for time_exit
    stm32f10x_it.o(.text) refers to stm32f10x_it.o(.constdata) for .constdata
    system_stm32f10x.o(.text) refers to system_stm32f10x.o(.data) for SystemCoreClock
    system_main.o(.text) refers to delay.o(.text) for delay_init
    system_main.o(.text) refers to led_api.o(.text) for led_init
    system_main.o(.text) refers to beep_api.o(.text) for beep_init
    system_main.o(.text) refers to key_api.o(.text) for key_init
    system_main.o(.text) refers to uart_api.o(.text) for uart_init
    system_main.o(.text) refers to lcd_api.o(.text) for lcd_init
    system_main.o(.text) refers to sram_api.o(.text) for sram_init
    system_main.o(.text) refers to time_api.o(.text) for time_init
    system_main.o(.text) refers to flash_inside_api.o(.text) for flash_inside_init
    system_main.o(.text) refers to flash_outside_api.o(.text) for flash_outside_init
    system_main.o(.text) refers to kernel_main.o(.text) for kernel_main
    system_interrupt.o(.text) refers to led_api.o(.text) for led_work_on
    system_interrupt.o(.text) refers to kernel_notice.o(.text) for hardware_notice
    power_api.o(.text) refers to power_api.o(.data) for power_stat
    led_api.o(.text) refers to stm32f10x_gpio.o(.text) for GPIO_ResetBits
    led_api.o(.text) refers to stm32f10x_rcc.o(.text) for RCC_APB2PeriphClockCmd
    beep_api.o(.text) refers to stm32f10x_gpio.o(.text) for GPIO_SetBits
    beep_api.o(.text) refers to stm32f10x_rcc.o(.text) for RCC_APB2PeriphClockCmd
    key_api.o(.text) refers to stm32f10x_gpio.o(.text) for GPIO_ReadInputDataBit
    key_api.o(.text) refers to stm32f10x_rcc.o(.text) for RCC_APB2PeriphClockCmd
    sram_api.o(.text) refers to stm32f10x_rcc.o(.text) for RCC_APB2PeriphClockCmd
    sram_api.o(.text) refers to stm32f10x_gpio.o(.text) for GPIO_Init
    sram_api.o(.text) refers to stm32f10x_fsmc.o(.text) for FSMC_NORSRAMInit
    sram_api.o(.text) refers to sram_api.o(.bss) for sram_hardware_information
    flash_inside_api.o(.text) refers to stm32f10x_flash.o(.text) for FLASH_Unlock
    flash_outside_api.o(.text) refers to flash_device_api.o(.text) for SPI_Flash_Init
    flash_device_api.o(.text) refers to flash_device_api.o(.data) for SPI_FLASH_TYPE
    flash_device_api.o(.text) refers to flash_device_api.o(.bss) for SPI_FLASH_BUFFER
    flash_device_api.o(.text) refers to delay.o(.text) for delay_us
    sdio_sdcard.o(.text) refers to sdio_sdcard.o(.data) for DeviceMode
    sdio_sdcard.o(.text) refers to sdio_sdcard.o(.bss) for CSD_Tab
    sdio_sdcard.o(.text) refers to sys.o(.text) for NVIC_Init_
    sdio_sdcard.o(.text) refers to rt_memcpy_v6.o(.text) for __aeabi_memcpy
    sdio_sdcard.o(.text) refers to llsdiv.o(.text) for __aeabi_ldivmod
    uart_api.o(.text) refers to _printf_percent.o(.ARM.Collect$$_printf_percent$$00000000) for _printf_percent
    uart_api.o(.text) refers to _printf_s.o(.ARM.Collect$$_printf_percent$$00000014) for _printf_s
    uart_api.o(.text) refers to _printf_str.o(.text) for _printf_str
    uart_api.o(.text) refers to stm32f10x_usart.o(.text) for USART_ITConfig
    uart_api.o(.text) refers to stm32f10x_rcc.o(.text) for RCC_APB2PeriphClockCmd
    uart_api.o(.text) refers to stm32f10x_gpio.o(.text) for GPIO_Init
    uart_api.o(.text) refers to misc.o(.text) for NVIC_Init
    uart_api.o(.text) refers to strlen.o(.text) for strlen
    uart_api.o(.text) refers to rt_memclr_w.o(.text) for __aeabi_memclr4
    uart_api.o(.text) refers to rt_memclr.o(.text) for __aeabi_memclr
    uart_api.o(.text) refers to delay.o(.text) for delay_us
    uart_api.o(.text) refers to rt_memcpy_v6.o(.text) for __aeabi_memcpy
    uart_api.o(.text) refers to noretval__2sprintf.o(.text) for __2sprintf
    uart_api.o(.text) refers to kernel_notice.o(.text) for hardware_notice
    uart_api.o(.text) refers to uart_api.o(.bss) for uart_recv_buffer
    uart_api.o(.text) refers to uart_api.o(.data) for uart_recv_buffer_length
    lcd_api.o(.text) refers to lcd_device_api.o(.text) for LCD_Display_Dir
    lcd_api.o(.text) refers to lcd_device_touch.o(.text) for TP_Init
    lcd_api.o(.text) refers to rt_memclr_w.o(.text) for __aeabi_memclr4
    lcd_api.o(.text) refers to strlen.o(.text) for strlen
    lcd_api.o(.text) refers to rt_memcpy_v6.o(.text) for __aeabi_memcpy
    lcd_api.o(.text) refers to aeabi_memset.o(.text) for __aeabi_memset
    lcd_api.o(.text) refers to rt_memclr.o(.text) for __aeabi_memclr
    lcd_api.o(.text) refers to lcd_device_touch.o(.data) for tp_dev
    lcd_api.o(.text) refers to lcd_api.o(.data) for lcd_diplay_state
    lcd_api.o(.text) refers to lcd_device_api.o(.data) for POINT_COLOR
    lcd_device_api.o(.text) refers to delay.o(.text) for delay_us
    lcd_device_api.o(.text) refers to lcd_device_api.o(.bss) for lcddev
    lcd_device_api.o(.text) refers to stm32f10x_rcc.o(.text) for RCC_AHBPeriphClockCmd
    lcd_device_api.o(.text) refers to stm32f10x_gpio.o(.text) for GPIO_Init
    lcd_device_api.o(.text) refers to stm32f10x_fsmc.o(.text) for FSMC_NORSRAMInit
    lcd_device_api.o(.text) refers to lcd_device_api.o(.data) for POINT_COLOR
    lcd_device_api.o(.text) refers to lcd_device_api.o(.constdata) for asc2_1206
    lcd_device_touch.o(.text) refers to delay.o(.text) for delay_us
    lcd_device_touch.o(.text) refers to lcd_device_api.o(.text) for LCD_DrawLine
    lcd_device_touch.o(.text) refers to fflt_clz.o(x$fpl$fflt) for __aeabi_i2f
    lcd_device_touch.o(.text) refers to fflt_clz.o(x$fpl$ffltu) for __aeabi_ui2f
    lcd_device_touch.o(.text) refers to fmul.o(x$fpl$fmul) for __aeabi_fmul
    lcd_device_touch.o(.text) refers to faddsub_clz.o(x$fpl$fadd) for __aeabi_fadd
    lcd_device_touch.o(.text) refers to ffixu.o(x$fpl$ffixu) for __aeabi_f2uiz
    lcd_device_touch.o(.text) refers to ffix.o(x$fpl$ffix) for __aeabi_f2iz
    lcd_device_touch.o(.text) refers to 24cxx.o(.text) for AT24CXX_WriteLenByte
    lcd_device_touch.o(.text) refers to lcd_device_touch.o(.data) for CMD_RDX
    lcd_device_touch.o(.text) refers to lcd_device_api.o(.data) for POINT_COLOR
    lcd_device_touch.o(.text) refers to fdiv.o(x$fpl$fdiv) for __aeabi_fdiv
    lcd_device_touch.o(.text) refers to dflt_clz.o(x$fpl$dfltu) for __aeabi_ui2d
    lcd_device_touch.o(.text) refers to sqrt.o(i.sqrt) for sqrt
    lcd_device_touch.o(.text) refers to dfixu.o(x$fpl$dfixu) for __aeabi_d2uiz
    lcd_device_touch.o(.text) refers to lcd_device_api.o(.bss) for lcddev
    lcd_device_touch.o(.text) refers to f2d.o(x$fpl$f2d) for __aeabi_f2d
    lcd_device_touch.o(.text) refers to dleqf.o(x$fpl$dleqf) for __aeabi_cdcmple
    lcd_device_touch.o(.text) refers to drleqf.o(x$fpl$drleqf) for __aeabi_cdrcmple
    lcd_device_touch.o(.text) refers to faddsub_clz.o(x$fpl$fsub) for __aeabi_fsub
    lcd_device_touch.o(.text) refers to iic.o(.text) for IIC_Init
    lcd_device_touch.o(.data) refers to lcd_device_touch.o(.text) for TP_Init
    lcd_device_touch.o(.data) refers to lcd_device_touch.o(.conststring) for .conststring
    time_api.o(.text) refers to rtc_device_api.o(.text) for RTC_Exit
    time_api.o(.text) refers to rt_memclr_w.o(.text) for __aeabi_memclr4
    time_api.o(.text) refers to time_api.o(.bss) for time_alarm
    time_api.o(.text) refers to rtc_device_api.o(.bss) for calendar
    rtc_device_api.o(.text) refers to _printf_pad.o(.text) for _printf_pre_padding
    rtc_device_api.o(.text) refers to _printf_percent.o(.ARM.Collect$$_printf_percent$$00000000) for _printf_percent
    rtc_device_api.o(.text) refers to _printf_d.o(.ARM.Collect$$_printf_percent$$00000009) for _printf_d
    rtc_device_api.o(.text) refers to _printf_dec.o(.text) for _printf_int_dec
    rtc_device_api.o(.text) refers to lcd_api.o(.text) for lcd_on
    rtc_device_api.o(.text) refers to misc.o(.text) for NVIC_Init
    rtc_device_api.o(.text) refers to stm32f10x_rtc.o(.text) for RTC_ITConfig
    rtc_device_api.o(.text) refers to stm32f10x_rcc.o(.text) for RCC_APB1PeriphClockCmd
    rtc_device_api.o(.text) refers to stm32f10x_pwr.o(.text) for PWR_BackupAccessCmd
    rtc_device_api.o(.text) refers to stm32f10x_bkp.o(.text) for BKP_ReadBackupRegister
    rtc_device_api.o(.text) refers to rt_memclr_w.o(.text) for __aeabi_memclr4
    rtc_device_api.o(.text) refers to time_api.o(.text) for time_get
    rtc_device_api.o(.text) refers to noretval__2sprintf.o(.text) for __2sprintf
    rtc_device_api.o(.text) refers to system_desktop_ui.o(.text) for system_desktop_title
    rtc_device_api.o(.text) refers to rtc_device_api.o(.data) for wait_time
    rtc_device_api.o(.text) refers to rtc_device_api.o(.constdata) for table_week
    rtc_device_api.o(.text) refers to rtc_device_api.o(.bss) for calendar
    delay.o(.text) refers to misc.o(.text) for SysTick_CLKSourceConfig
    delay.o(.text) refers to system_stm32f10x.o(.data) for SystemCoreClock
    delay.o(.text) refers to delay.o(.data) for fac_us
    sys.o(.text) refers to misc.o(.text) for NVIC_PriorityGroupConfig
    24cxx.o(.text) refers to iic.o(.text) for IIC_Start
    24cxx.o(.text) refers to delay.o(.text) for delay_ms
    iic.o(.text) refers to delay.o(.text) for delay_us
    kernel_notice.o(.text) refers to graphics_window.o(.text) for get_window_front
    kernel_notice.o(.text) refers to kernel_expand_gsm.o(.text) for gsm_notice
    kernel_notice.o(.text) refers to kernel_notice.o(.bss) for kernel_notice_data
    kernel_ui_api.o(.text) refers to graphics_window.o(.text) for create_window
    kernel_ui_api.o(.text) refers to lcd_api.o(.text) for lcd_calcu_middle_location
    kernel_ui_api.o(.text) refers to graphics_bitmap.o(.text) for graphics_get_bitmap
    kernel_ui_api.o(.text) refers to graphics_widget.o(.text) for create_widget
    kernel_ui_api.o(.text) refers to strlen.o(.text) for strlen
    kernel_ui_api.o(.text) refers to rt_memcpy_v6.o(.text) for __aeabi_memcpy
    kernel_ui_api.o(.text) refers to rt_memclr_w.o(.text) for __aeabi_memclr4
    kernel_ui_api.o(.text) refers to kernel_ui_api.o(.data) for kernel_load_window
    kernel_ui_api.o(.text) refers to kernel_ui_api.o(.constdata) for kernel_logo
    kernel_main.o(.text) refers to graphics_window.o(.text) for graphics_init
    kernel_main.o(.text) refers to malloc.o(.text) for mem_init
    kernel_main.o(.text) refers to kernel_ui_api.o(.text) for kernel_load_enter
    kernel_main.o(.text) refers to delay.o(.text) for delay_ms
    kernel_main.o(.text) refers to kernel_notice.o(.text) for kernel_notice_init
    kernel_main.o(.text) refers to kernel_expand_gsm.o(.text) for gsm_init
    kernel_main.o(.text) refers to file_operate.o(.text) for file_system_init
    kernel_main.o(.text) refers to system_desktop.o(.text) for system_desktop_init
    kernel_main.o(.text) refers to thread_main.o(.text) for thread_main
    kernel_main.o(.text) refers to key_api.o(.text) for key_stat
    kernel_main.o(.text) refers to kernel_main.o(.constdata) for .constdata
    thread_main.o(.text) refers to power_api.o(.text) for power_shutdown
    thread_main.o(.text) refers to led_api.o(.text) for led_work_on
    thread_main.o(.text) refers to lcd_api.o(.text) for lcd_display_state
    thread_main.o(.text) refers to key_api.o(.text) for key_stat
    thread_main.o(.text) refers to rtc_device_api.o(.text) for reset_wait_time
    thread_main.o(.text) refers to graphics_window.o(.text) for get_window_front
    thread_main.o(.text) refers to delay.o(.text) for delay_ms
    thread_main.o(.text) refers to kernel_notice.o(.text) for hardware_notice
    thread_main.o(.text) refers to thread_main.o(.data) for kernel_power
    malloc.o(.text) refers to malloc.o(.constdata) for memtblsize
    malloc.o(.text) refers to malloc.o(.data) for mallco_dev
    malloc.o(.data) refers to malloc.o(.text) for mem_init
    malloc.o(.data) refers to malloc.o(.bss) for mem1base
    malloc.o(.data) refers to malloc.o(.ARM.__AT_0x68000000) for mem2base
    malloc.o(.data) refers to malloc.o(.ARM.__AT_0x68032000) for mem2mapbase
    file_operate.o(.text) refers to exfuns.o(.text) for exfuns_init
    file_operate.o(.text) refers to ff.o(.text) for f_mount
    file_operate.o(.text) refers to h1_alloc.o(.text) for malloc
    file_operate.o(.text) refers to rt_memcpy_v6.o(.text) for __aeabi_memcpy
    file_operate.o(.text) refers to exfuns.o(.data) for fs
    ff.o(.text) refers to diskio.o(.text) for disk_write
    ff.o(.text) refers to cc936.o(.text) for ff_wtoupper
    ff.o(.text) refers to ff.o(.constdata) for LfnOfs
    ff.o(.text) refers to ff.o(.data) for FatFs
    diskio.o(.text) refers to sdio_sdcard.o(.text) for SD_Init
    diskio.o(.text) refers to malloc.o(.text) for mymalloc
    cc936.o(.text) refers to cc936.o(.constdata) for oem2uni
    fattester.o(.text) refers to _printf_percent.o(.ARM.Collect$$_printf_percent$$00000000) for _printf_percent
    fattester.o(.text) refers to _printf_d.o(.ARM.Collect$$_printf_percent$$00000009) for _printf_d
    fattester.o(.text) refers to _printf_dec.o(.text) for _printf_int_dec
    fattester.o(.text) refers to _printf_c.o(.ARM.Collect$$_printf_percent$$00000013) for _printf_c
    fattester.o(.text) refers to _printf_str.o(.text) for _printf_str
    fattester.o(.text) refers to _printf_s.o(.ARM.Collect$$_printf_percent$$00000014) for _printf_s
    fattester.o(.text) refers to ff.o(.text) for f_mount
    fattester.o(.text) refers to noretval__2printf.o(.text) for __2printf
    fattester.o(.text) refers to malloc.o(.text) for mymalloc
    fattester.o(.text) refers to exfuns.o(.data) for fs
    fattester.o(.text) refers to exfuns.o(.bss) for dir
    exfuns.o(.text) refers to malloc.o(.text) for mymalloc
    exfuns.o(.text) refers to strcpy.o(.text) for strcpy
    exfuns.o(.text) refers to strcmpv7m.o(.text) for strcmp
    exfuns.o(.text) refers to ff.o(.text) for f_getfree
    exfuns.o(.text) refers to exfuns.o(.data) for fs
    exfuns.o(.data) refers to exfuns.o(.conststring) for .conststring
    graphics_background.o(.text) refers to lcd_api.o(.text) for lcd_draw_point
    graphics_bitmap.o(.text) refers to lcd_api.o(.text) for lcd_draw_point
    graphics_bitmap.o(.text) refers to rt_memclr_w.o(.text) for __aeabi_memclr4
    graphics_bitmap.o(.text) refers to rt_memcpy_v6.o(.text) for __aeabi_memcpy
    graphics_font.o(.text) refers to lcd_api.o(.text) for lcd_display_state
    graphics_font.o(.text) refers to lcd_device_api.o(.text) for LCD_ShowChar
    graphics_font.o(.text) refers to strlen.o(.text) for strlen
    graphics_font.o(.text) refers to lcd_device_api.o(.data) for POINT_COLOR
    graphics_widget.o(.text) refers to rt_memcpy_w.o(.text) for __aeabi_memcpy4
    graphics_widget.o(.text) refers to malloc.o(.text) for mymalloc
    graphics_widget.o(.text) refers to rt_memclr.o(.text) for __aeabi_memclr
    graphics_widget.o(.text) refers to rt_memclr_w.o(.text) for __aeabi_memclr4
    graphics_widget.o(.text) refers to graphics_window.o(.text) for refresh_window
    graphics_widget.o(.text) refers to lcd_api.o(.text) for lcd_draw_rectangle
    graphics_widget.o(.text) refers to rt_memcpy_v6.o(.text) for __aeabi_memcpy
    graphics_widget.o(.text) refers to graphics_font.o(.text) for graphics_draw_font_string
    graphics_widget.o(.text) refers to strlen.o(.text) for strlen
    graphics_widget.o(.text) refers to graphics_window.o(.bss) for window_list
    graphics_widget.o(.text) refers to dflt_clz.o(x$fpl$dfltu) for __aeabi_ui2d
    graphics_widget.o(.text) refers to dmul.o(x$fpl$dmul) for __aeabi_dmul
    graphics_widget.o(.text) refers to ddiv.o(x$fpl$ddiv) for __aeabi_ddiv
    graphics_widget.o(.text) refers to daddsub_clz.o(x$fpl$dadd) for __aeabi_dadd
    graphics_widget.o(.text) refers to dfix.o(x$fpl$dfix) for __aeabi_d2iz
    graphics_widget.o(.text) refers to graphics_bitmap.o(.text) for graphics_draw_bitmap
    graphics_window.o(.text) refers to rt_memclr_w.o(.text) for __aeabi_memclr4
    graphics_window.o(.text) refers to rt_memcpy_v6.o(.text) for __aeabi_memcpy
    graphics_window.o(.text) refers to lcd_api.o(.text) for lcd_draw_rectangle
    graphics_window.o(.text) refers to graphics_font.o(.text) for graphics_draw_font_string
    graphics_window.o(.text) refers to graphics_window.o(.bss) for window_list
    graphics_window.o(.text) refers to graphics_widget.o(.text) for draw_widget
    graphics_window.o(.text) refers to strlen.o(.text) for strlen
    graphics_window.o(.text) refers to graphics_window.o(.data) for window_front
    graphics_window.o(.text) refers to graphics_background.o(.text) for graphics_draw_background
    graphics_window.o(.text) refers to delay.o(.text) for delay_ms
    graphics_window.o(.text) refers to graphics_window.o(.constdata) for messagebox_warning_flag
    graphics_window.o(.text) refers to kernel_ui_api.o(.constdata) for kernel_logo
    kernel_expand_gsm.o(.text) refers to _printf_percent.o(.ARM.Collect$$_printf_percent$$00000000) for _printf_percent
    kernel_expand_gsm.o(.text) refers to _printf_s.o(.ARM.Collect$$_printf_percent$$00000014) for _printf_s
    kernel_expand_gsm.o(.text) refers to _printf_str.o(.text) for _printf_str
    kernel_expand_gsm.o(.text) refers to uart_api.o(.text) for uart_send
    kernel_expand_gsm.o(.text) refers to strcmpv7m.o(.text) for strcmp
    kernel_expand_gsm.o(.text) refers to telephone_ui.o(.text) for telephone_dial_init
    kernel_expand_gsm.o(.text) refers to strlen.o(.text) for strlen
    kernel_expand_gsm.o(.text) refers to rt_memcpy_v6.o(.text) for __aeabi_memcpy
    kernel_expand_gsm.o(.text) refers to rt_memclr.o(.text) for __aeabi_memclr
    kernel_expand_gsm.o(.text) refers to rt_memclr_w.o(.text) for __aeabi_memclr4
    kernel_expand_gsm.o(.text) refers to noretval__2sprintf.o(.text) for __2sprintf
    kernel_expand_gsm.o(.text) refers to kernel_expand_gsm.o(.bss) for ring_number_buffer
    system_desktop.o(.text) refers to graphics_window.o(.text) for create_window
    system_desktop.o(.text) refers to system_desktop_ui.o(.text) for system_desktop_ui_init
    system_desktop.o(.text) refers to kernel_ui_api.o(.text) for kernel_err_report
    system_desktop.o(.text) refers to system_desktop.o(.data) for desktop_handle
    system_desktop_ui.o(.text) refers to graphics_window.o(.text) for set_window_title
    system_desktop_ui.o(.text) refers to telephone_ui.o(.text) for telephone_init
    system_desktop_ui.o(.text) refers to alarm_ui.o(.text) for alarm_init
    system_desktop_ui.o(.text) refers to system_desktop_application_execute.o(.text) for system_desktop_application_execute_init
    system_desktop_ui.o(.text) refers to graphics_widget.o(.text) for set_picture_bitmap
    system_desktop_ui.o(.text) refers to rt_memcpy_w.o(.text) for __aeabi_memcpy4
    system_desktop_ui.o(.text) refers to rt_memclr_w.o(.text) for __aeabi_memclr4
    system_desktop_ui.o(.text) refers to file_operate.o(.text) for folder_enum_count
    system_desktop_ui.o(.text) refers to strlen.o(.text) for strlen
    system_desktop_ui.o(.text) refers to rt_memcpy_v6.o(.text) for __aeabi_memcpy
    system_desktop_ui.o(.text) refers to malloc.o(.text) for mymalloc
    system_desktop_ui.o(.text) refers to graphics_bitmap.o(.text) for graphics_get_bitmap
    system_desktop_ui.o(.text) refers to system_desktop_ui.o(.data) for system_desktop_handle
    system_desktop_ui.o(.text) refers to system_desktop_ui.o(.bss) for app_list
    system_desktop_ui.o(.text) refers to system_desktop_ui.o(.constdata) for telephone_icon
    system_desktop_ui.o(.text) refers to system_desktop.o(.text) for system_desktop_init
    system_desktop_application_execute.o(.text) refers to rt_memclr_w.o(.text) for __aeabi_memclr4
    system_desktop_application_execute.o(.text) refers to rt_memcpy_v6.o(.text) for __aeabi_memcpy
    system_desktop_application_execute.o(.text) refers to strcat.o(.text) for strcat
    system_desktop_application_execute.o(.text) refers to file_operate.o(.text) for file_open
    system_desktop_application_execute.o(.text) refers to script_hoster.o(.text) for load_script
    script_hoster.o(.text) refers to rt_memcpy_v6.o(.text) for __aeabi_memcpy
    script_hoster.o(.text) refers to rt_memclr_w.o(.text) for __aeabi_memclr4
    script_hoster.o(.text) refers to strcmpv7m.o(.text) for strcmp
    script_hoster.o(.text) refers to script_syntax.o(.text) for check_syntax_line
    script_hoster.o(.text) refers to strlen.o(.text) for strlen
    script_hoster.o(.text) refers to rt_memcpy_w.o(.text) for __aeabi_memcpy4
    script_hoster.o(.text) refers to rt_memclr.o(.text) for __aeabi_memclr
    script_hoster.o(.text) refers to script_resolve.o(.text) for is_valid_variables_name
    script_hoster.o(.text) refers to script_hoster.o(.data) for script_line
    script_hoster.o(.text) refers to script_hoster.o(.bss) for globel_variables_table
    script_hoster.o(.text) refers to feqf.o(x$fpl$feqf) for __aeabi_cfcmpeq
    script_hoster.o(.text) refers to frleqf.o(x$fpl$frleqf) for __aeabi_cfrcmple
    script_hoster.o(.text) refers to fleqf.o(x$fpl$fleqf) for __aeabi_cfcmple
    script_hoster.o(.text) refers to ffix.o(x$fpl$ffix) for __aeabi_f2iz
    script_hoster.o(.text) refers to h1_alloc.o(.text) for malloc
    script_hoster.o(.text) refers to h1_free.o(.text) for free
    script_hoster.o(.text) refers to fflt_clz.o(x$fpl$fflt) for __aeabi_i2f
    script_hoster.o(.text) refers to graphics_window.o(.text) for messagebox
    script_hoster.o(.text) refers to file_operate.o(.text) for file_open
    script_resolve.o(.text) refers to _printf_percent.o(.ARM.Collect$$_printf_percent$$00000000) for _printf_percent
    script_resolve.o(.text) refers to _printf_d.o(.ARM.Collect$$_printf_percent$$00000009) for _printf_d
    script_resolve.o(.text) refers to _printf_dec.o(.text) for _printf_int_dec
    script_resolve.o(.text) refers to strlen.o(.text) for strlen
    script_resolve.o(.text) refers to rt_memcpy_v6.o(.text) for __aeabi_memcpy
    script_resolve.o(.text) refers to rt_memclr.o(.text) for __aeabi_memclr
    script_resolve.o(.text) refers to noretval__2sprintf.o(.text) for __2sprintf
    script_resolve.o(.text) refers to dflt_clz.o(x$fpl$dflt) for __aeabi_i2d
    script_resolve.o(.text) refers to pow.o(i.pow) for pow
    script_resolve.o(.text) refers to dfix.o(x$fpl$dfix) for __aeabi_d2iz
    script_resolve.o(.text) refers to fflt_clz.o(x$fpl$fflt) for __aeabi_i2f
    script_syntax.o(.text) refers to script_resolve.o(.text) for string_change_low
    script_syntax.o(.text) refers to strcmpv7m.o(.text) for strcmp
    script_syntax.o(.text) refers to rt_memclr_w.o(.text) for __aeabi_memclr4
    script_syntax.o(.text) refers to strlen.o(.text) for strlen
    script_syntax.o(.text) refers to rt_memcpy_v6.o(.text) for __aeabi_memcpy
    script_syntax.o(.text) refers to rt_memcpy_w.o(.text) for __aeabi_memcpy4
    telephone_ui.o(.text) refers to strlen.o(.text) for strlen
    telephone_ui.o(.text) refers to strcat.o(.text) for strcat
    telephone_ui.o(.text) refers to graphics_widget.o(.text) for set_label_caption
    telephone_ui.o(.text) refers to kernel_expand_gsm.o(.text) for gsm_handup
    telephone_ui.o(.text) refers to graphics_window.o(.text) for close_window
    telephone_ui.o(.text) refers to beep_api.o(.text) for beep_off
    telephone_ui.o(.text) refers to rt_memclr.o(.text) for __aeabi_memclr
    telephone_ui.o(.text) refers to telephone_ui.o(.bss) for call_phone_number_buffer
    telephone_ui.o(.text) refers to telephone_ui.o(.data) for phone_number_laben_handle
    alarm_ui.o(.text) refers to _printf_pad.o(.text) for _printf_pre_padding
    alarm_ui.o(.text) refers to _printf_percent.o(.ARM.Collect$$_printf_percent$$00000000) for _printf_percent
    alarm_ui.o(.text) refers to _printf_d.o(.ARM.Collect$$_printf_percent$$00000009) for _printf_d
    alarm_ui.o(.text) refers to _printf_dec.o(.text) for _printf_int_dec
    alarm_ui.o(.text) refers to noretval__2sprintf.o(.text) for __2sprintf
    alarm_ui.o(.text) refers to graphics_widget.o(.text) for set_label_caption
    alarm_ui.o(.text) refers to rt_memclr_w.o(.text) for __aeabi_memclr4
    alarm_ui.o(.text) refers to graphics_window.o(.text) for close_window
    alarm_ui.o(.text) refers to beep_api.o(.text) for beep_off
    alarm_ui.o(.text) refers to time_api.o(.text) for time_alarm_add
    alarm_ui.o(.text) refers to alarm_ui.o(.data) for alarm_select_list_line
    alarm_ui.o(.text) refers to alarm_ui.o(.bss) for alarm_list
    alarm_ui.o(.text) refers to aeabi_memset.o(.text) for __aeabi_memset
    malloc.o(.text) refers (Special) to hguard.o(.text) for __heap$guard
    malloc.o(.text) refers (Special) to init_alloc.o(.text) for _init_alloc
    malloc.o(.text) refers to rt_heap_descriptor_intlibspace.o(.text) for __rt_heap_descriptor
    malloc.o(.text) refers to heapstubs.o(.text) for __Heap_Alloc
    free.o(.text) refers (Special) to hguard.o(.text) for __heap$guard
    free.o(.text) refers to rt_heap_descriptor_intlibspace.o(.text) for __rt_heap_descriptor
    free.o(.text) refers to heapstubs.o(.text) for __Heap_Free
    h1_alloc.o(.text) refers (Special) to h1_init.o(.text) for __Heap_Initialize
    h1_alloc.o(.text) refers to rt_heap_descriptor_intlibspace.o(.text) for __rt_heap_descriptor
    h1_alloc.o(.text) refers to init_alloc.o(.text) for __Heap_Full
    h1_free.o(.text) refers to rt_heap_descriptor_intlibspace.o(.text) for __rt_heap_descriptor
    h1_alloc_mt.o(.text) refers (Special) to h1_init.o(.text) for __Heap_Initialize
    h1_alloc_mt.o(.text) refers to init_alloc.o(.text) for __Heap_Full
    h1_alloc_mt.o(.text) refers to rt_heap_descriptor_intlibspace.o(.text) for __rt_heap_descriptor
    h1_free_mt.o(.text) refers to rt_heap_descriptor_intlibspace.o(.text) for __rt_heap_descriptor
    heap2.o(i._FDIterate) refers to heap2.o(.constdata) for .constdata
    heap2.o(i.___Heap_ProvideMemory$realtime) refers to fdtree.o(i._FDTree_Delete) for _FDTree_Delete
    heap2.o(i.___Heap_ProvideMemory$realtime) refers to fdtree.o(i._FDTree_Insert) for _FDTree_Insert
    heap2.o(i.___Heap_Stats$realtime) refers to heap2.o(i._Heap2_StatsIterate) for _Heap2_StatsIterate
    heap2.o(i.___Heap_Valid$realtime) refers to heap2.o(i._FDIterate) for _FDIterate
    heap2.o(i.___Heap_Valid$realtime) refers to heap2.o(.constdata) for .constdata
    heap2.o(i._free$realtime) refers to rt_heap_descriptor_intlibspace.o(.text) for __rt_heap_descriptor
    heap2.o(i._free$realtime) refers to fdtree.o(i._FDTree_Delete) for _FDTree_Delete
    heap2.o(i._free$realtime) refers to fdtree.o(i._FDTree_Insert) for _FDTree_Insert
    heap2.o(i._malloc$realtime) refers to rt_heap_descriptor_intlibspace.o(.text) for __rt_heap_descriptor
    heap2.o(i._malloc$realtime) refers to fdtree.o(i._FDTree_FindFirst) for _FDTree_FindFirst
    heap2.o(i._malloc$realtime) refers to init_alloc.o(.text) for __Heap_Full
    heap2.o(i._malloc$realtime) refers to fdtree.o(i._FDTree_RemoveNode) for _FDTree_RemoveNode
    heap2.o(i._malloc$realtime) refers to fdtree.o(i._FDTree_Insert) for _FDTree_Insert
    heap2.o(i._posix_memalign$realtime) refers to rt_heap_descriptor_intlibspace.o(.text) for __rt_heap_descriptor
    heap2.o(i._posix_memalign$realtime) refers to fdtree.o(i._FDTree_FindFirst) for _FDTree_FindFirst
    heap2.o(i._posix_memalign$realtime) refers to init_alloc.o(.text) for __Heap_Full
    heap2.o(i._posix_memalign$realtime) refers to fdtree.o(i._FDTree_RemoveNode) for _FDTree_RemoveNode
    heap2.o(i._posix_memalign$realtime) refers to fdtree.o(i._FDTree_Insert) for _FDTree_Insert
    heap2.o(i._realloc$realtime) refers to rt_heap_descriptor_intlibspace.o(.text) for __rt_heap_descriptor
    heap2.o(i._realloc$realtime) refers to fdtree.o(i._FDTree_Insert) for _FDTree_Insert
    heap2.o(i._realloc$realtime) refers to h1_free.o(.text) for free
    heap2.o(i._realloc$realtime) refers to h1_alloc.o(.text) for malloc
    heap2.o(i._realloc$realtime) refers to fdtree.o(i._FDTree_Delete) for _FDTree_Delete
    heap2.o(i._realloc$realtime) refers to rt_memcpy_w.o(.text) for __aeabi_memcpy4
    heap2mt.o(i._FDIterate) refers to heap2mt.o(.constdata) for .constdata
    heap2mt.o(i.___Heap_Initialize$realtime$concurrent) refers to mutex_dummy.o(.text) for _mutex_initialize
    heap2mt.o(i.___Heap_ProvideMemory$realtime$concurrent) refers to fdtree.o(i._FDTree_Delete) for _FDTree_Delete
    heap2mt.o(i.___Heap_ProvideMemory$realtime$concurrent) refers to fdtree.o(i._FDTree_Insert) for _FDTree_Insert
    heap2mt.o(i.___Heap_Stats$realtime$concurrent) refers to heap2mt.o(i._Heap2_StatsIterate) for _Heap2_StatsIterate
    heap2mt.o(i.___Heap_Valid$realtime$concurrent) refers to heap2mt.o(i._FDIterate) for _FDIterate
    heap2mt.o(i.___Heap_Valid$realtime$concurrent) refers to heap2mt.o(.constdata) for .constdata
    heap2mt.o(i._free$realtime$concurrent) refers to rt_heap_descriptor_intlibspace.o(.text) for __rt_heap_descriptor
    heap2mt.o(i._free$realtime$concurrent) refers to fdtree.o(i._FDTree_Delete) for _FDTree_Delete
    heap2mt.o(i._free$realtime$concurrent) refers to fdtree.o(i._FDTree_Insert) for _FDTree_Insert
    heap2mt.o(i._malloc$realtime$concurrent) refers to rt_heap_descriptor_intlibspace.o(.text) for __rt_heap_descriptor
    heap2mt.o(i._malloc$realtime$concurrent) refers to fdtree.o(i._FDTree_FindFirst) for _FDTree_FindFirst
    heap2mt.o(i._malloc$realtime$concurrent) refers to init_alloc.o(.text) for __Heap_Full
    heap2mt.o(i._malloc$realtime$concurrent) refers to fdtree.o(i._FDTree_RemoveNode) for _FDTree_RemoveNode
    heap2mt.o(i._malloc$realtime$concurrent) refers to fdtree.o(i._FDTree_Insert) for _FDTree_Insert
    heap2mt.o(i._posix_memalign$realtime$concurrent) refers to rt_heap_descriptor_intlibspace.o(.text) for __rt_heap_descriptor
    heap2mt.o(i._posix_memalign$realtime$concurrent) refers to fdtree.o(i._FDTree_FindFirst) for _FDTree_FindFirst
    heap2mt.o(i._posix_memalign$realtime$concurrent) refers to init_alloc.o(.text) for __Heap_Full
    heap2mt.o(i._posix_memalign$realtime$concurrent) refers to fdtree.o(i._FDTree_RemoveNode) for _FDTree_RemoveNode
    heap2mt.o(i._posix_memalign$realtime$concurrent) refers to fdtree.o(i._FDTree_Insert) for _FDTree_Insert
    heap2mt.o(i._realloc$realtime$concurrent) refers to rt_heap_descriptor_intlibspace.o(.text) for __rt_heap_descriptor
    heap2mt.o(i._realloc$realtime$concurrent) refers to fdtree.o(i._FDTree_Insert) for _FDTree_Insert
    heap2mt.o(i._realloc$realtime$concurrent) refers to h1_free.o(.text) for free
    heap2mt.o(i._realloc$realtime$concurrent) refers to h1_alloc.o(.text) for malloc
    heap2mt.o(i._realloc$realtime$concurrent) refers to fdtree.o(i._FDTree_Delete) for _FDTree_Delete
    heap2mt.o(i._realloc$realtime$concurrent) refers to rt_memcpy_w.o(.text) for __aeabi_memcpy4
    llsdiv.o(.text) refers to lludivv7m.o(.text) for __aeabi_uldivmod
    __2printf.o(.text) refers to _printf_char_file.o(.text) for _printf_char_file
    __2printf.o(.text) refers to stdio_streams.o(.bss) for __stdout
    __2sprintf.o(.text) refers to _printf_char_common.o(.text) for _printf_char_common
    __2sprintf.o(.text) refers to _sputc.o(.text) for _sputc
    noretval__2printf.o(.text) refers to _printf_char_file.o(.text) for _printf_char_file
    noretval__2printf.o(.text) refers to stdio_streams.o(.bss) for __stdout
    noretval__2sprintf.o(.text) refers to _printf_char_common.o(.text) for _printf_char_common
    noretval__2sprintf.o(.text) refers to _sputc.o(.text) for _sputc
    __printf.o(.text) refers to _printf_percent.o(.ARM.Collect$$_printf_percent$$00000000) for _printf_percent
    _printf_str.o(.text) refers (Special) to _printf_char.o(.text) for _printf_cs_common
    _printf_str.o(.text) refers (Weak) to _printf_pad.o(.text) for _printf_pre_padding
    _printf_str.o(.text) refers (Weak) to _printf_pad.o(.text) for _printf_post_padding
    _printf_dec.o(.text) refers to _printf_intcommon.o(.text) for _printf_int_common
    __printf_flags.o(.text) refers to _printf_percent.o(.ARM.Collect$$_printf_percent$$00000000) for _printf_percent
    __printf_flags.o(.text) refers to __printf_flags.o(.constdata) for .constdata
    __printf_ss.o(.text) refers to _printf_percent.o(.ARM.Collect$$_printf_percent$$00000000) for _printf_percent
    __printf_flags_ss.o(.text) refers to _printf_percent.o(.ARM.Collect$$_printf_percent$$00000000) for _printf_percent
    __printf_flags_ss.o(.text) refers to __printf_flags_ss.o(.constdata) for .constdata
    __printf_wp.o(.text) refers to __printf_wp.o(i._is_digit) for _is_digit
    __printf_wp.o(.text) refers to _printf_percent.o(.ARM.Collect$$_printf_percent$$00000000) for _printf_percent
    __printf_flags_wp.o(.text) refers to __printf_wp.o(i._is_digit) for _is_digit
    __printf_flags_wp.o(.text) refers to _printf_percent.o(.ARM.Collect$$_printf_percent$$00000000) for _printf_percent
    __printf_flags_wp.o(.text) refers to __printf_flags_wp.o(.constdata) for .constdata
    __printf_ss_wp.o(.text) refers to __printf_wp.o(i._is_digit) for _is_digit
    __printf_ss_wp.o(.text) refers to _printf_percent.o(.ARM.Collect$$_printf_percent$$00000000) for _printf_percent
    __printf_flags_ss_wp.o(.text) refers to __printf_wp.o(i._is_digit) for _is_digit
    __printf_flags_ss_wp.o(.text) refers to _printf_percent.o(.ARM.Collect$$_printf_percent$$00000000) for _printf_percent
    __printf_flags_ss_wp.o(.text) refers to __printf_flags_ss_wp.o(.constdata) for .constdata
    _printf_c.o(.ARM.Collect$$_printf_percent$$00000013) refers (Weak) to _printf_char.o(.text) for _printf_char
    _printf_s.o(.ARM.Collect$$_printf_percent$$00000014) refers (Weak) to _printf_char.o(.text) for _printf_string
    _printf_d.o(.ARM.Collect$$_printf_percent$$00000009) refers (Weak) to _printf_dec.o(.text) for _printf_int_dec
    _printf_percent.o(.ARM.Collect$$_printf_percent$$00000000) refers (Special) to _printf_percent_end.o(.ARM.Collect$$_printf_percent$$00000017) for _printf_percent_end
    rt_memcpy_v6.o(.text) refers to rt_memcpy_w.o(.text) for __aeabi_memcpy4
    aeabi_memset.o(.text) refers to rt_memclr.o(.text) for _memset
    rt_memclr.o(.text) refers to rt_memclr_w.o(.text) for _memset_w
    __main.o(!!!main) refers to rtentry.o(.ARM.Collect$$rtentry$$00000000) for __rt_entry
    daddsub_clz.o(x$fpl$dadd) refers (Special) to usenofp.o(x$fpl$usenofp) for __I$use$fp
    daddsub_clz.o(x$fpl$dadd) refers to daddsub_clz.o(x$fpl$dsub) for _dsub1
    daddsub_clz.o(x$fpl$dadd) refers to dretinf.o(x$fpl$dretinf) for __fpl_dretinf
    daddsub_clz.o(x$fpl$dadd) refers to dnaninf.o(x$fpl$dnaninf) for __fpl_dnaninf
    daddsub_clz.o(x$fpl$drsb) refers (Special) to usenofp.o(x$fpl$usenofp) for __I$use$fp
    daddsub_clz.o(x$fpl$drsb) refers to daddsub_clz.o(x$fpl$dadd) for _dadd1
    daddsub_clz.o(x$fpl$drsb) refers to daddsub_clz.o(x$fpl$dsub) for _dsub1
    daddsub_clz.o(x$fpl$dsub) refers (Special) to usenofp.o(x$fpl$usenofp) for __I$use$fp
    daddsub_clz.o(x$fpl$dsub) refers to daddsub_clz.o(x$fpl$dadd) for _dadd1
    daddsub_clz.o(x$fpl$dsub) refers to dnaninf.o(x$fpl$dnaninf) for __fpl_dnaninf
    ddiv.o(x$fpl$drdiv) refers (Special) to usenofp.o(x$fpl$usenofp) for __I$use$fp
    ddiv.o(x$fpl$drdiv) refers to ddiv.o(x$fpl$ddiv) for ddiv_entry
    ddiv.o(x$fpl$ddiv) refers (Special) to usenofp.o(x$fpl$usenofp) for __I$use$fp
    ddiv.o(x$fpl$ddiv) refers to dretinf.o(x$fpl$dretinf) for __fpl_dretinf
    ddiv.o(x$fpl$ddiv) refers to dnaninf.o(x$fpl$dnaninf) for __fpl_dnaninf
    dfix.o(x$fpl$dfix) refers (Special) to usenofp.o(x$fpl$usenofp) for __I$use$fp
    dfix.o(x$fpl$dfix) refers to dnaninf.o(x$fpl$dnaninf) for __fpl_dnaninf
    dfix.o(x$fpl$dfixr) refers (Special) to usenofp.o(x$fpl$usenofp) for __I$use$fp
    dfix.o(x$fpl$dfixr) refers to dnaninf.o(x$fpl$dnaninf) for __fpl_dnaninf
    dfixu.o(x$fpl$dfixu) refers (Special) to usenofp.o(x$fpl$usenofp) for __I$use$fp
    dfixu.o(x$fpl$dfixu) refers to dnaninf.o(x$fpl$dnaninf) for __fpl_dnaninf
    dfixu.o(x$fpl$dfixur) refers (Special) to usenofp.o(x$fpl$usenofp) for __I$use$fp
    dfixu.o(x$fpl$dfixur) refers to dnaninf.o(x$fpl$dnaninf) for __fpl_dnaninf
    dflt_clz.o(x$fpl$dfltu) refers (Special) to usenofp.o(x$fpl$usenofp) for __I$use$fp
    dflt_clz.o(x$fpl$dflt) refers (Special) to usenofp.o(x$fpl$usenofp) for __I$use$fp
    dflt_clz.o(x$fpl$dfltn) refers (Special) to usenofp.o(x$fpl$usenofp) for __I$use$fp
    dleqf.o(x$fpl$dleqf) refers (Special) to usenofp.o(x$fpl$usenofp) for __I$use$fp
    dleqf.o(x$fpl$dleqf) refers to dnaninf.o(x$fpl$dnaninf) for __fpl_dnaninf
    dleqf.o(x$fpl$dleqf) refers to dcmpi.o(x$fpl$dcmpinf) for __fpl_dcmp_Inf
    dmul.o(x$fpl$dmul) refers (Special) to usenofp.o(x$fpl$usenofp) for __I$use$fp
    dmul.o(x$fpl$dmul) refers to dretinf.o(x$fpl$dretinf) for __fpl_dretinf
    dmul.o(x$fpl$dmul) refers to dnaninf.o(x$fpl$dnaninf) for __fpl_dnaninf
    drleqf.o(x$fpl$drleqf) refers (Special) to usenofp.o(x$fpl$usenofp) for __I$use$fp
    drleqf.o(x$fpl$drleqf) refers to dleqf.o(x$fpl$dleqf) for __fpl_dcmple_InfNaN
    f2d.o(x$fpl$f2d) refers (Special) to usenofp.o(x$fpl$usenofp) for __I$use$fp
    f2d.o(x$fpl$f2d) refers to fnaninf.o(x$fpl$fnaninf) for __fpl_fnaninf
    f2d.o(x$fpl$f2d) refers to dretinf.o(x$fpl$dretinf) for __fpl_dretinf
    faddsub_clz.o(x$fpl$fadd) refers (Special) to usenofp.o(x$fpl$usenofp) for __I$use$fp
    faddsub_clz.o(x$fpl$fadd) refers to faddsub_clz.o(x$fpl$fsub) for _fsub1
    faddsub_clz.o(x$fpl$fadd) refers to fretinf.o(x$fpl$fretinf) for __fpl_fretinf
    faddsub_clz.o(x$fpl$fadd) refers to fnaninf.o(x$fpl$fnaninf) for __fpl_fnaninf
    faddsub_clz.o(x$fpl$frsb) refers (Special) to usenofp.o(x$fpl$usenofp) for __I$use$fp
    faddsub_clz.o(x$fpl$frsb) refers to faddsub_clz.o(x$fpl$fadd) for _fadd1
    faddsub_clz.o(x$fpl$frsb) refers to faddsub_clz.o(x$fpl$fsub) for _fsub1
    faddsub_clz.o(x$fpl$fsub) refers (Special) to usenofp.o(x$fpl$usenofp) for __I$use$fp
    faddsub_clz.o(x$fpl$fsub) refers to faddsub_clz.o(x$fpl$fadd) for _fadd1
    faddsub_clz.o(x$fpl$fsub) refers to fnaninf.o(x$fpl$fnaninf) for __fpl_fnaninf
    fdiv.o(x$fpl$frdiv) refers (Special) to usenofp.o(x$fpl$usenofp) for __I$use$fp
    fdiv.o(x$fpl$frdiv) refers to fdiv.o(x$fpl$fdiv) for _fdiv1
    fdiv.o(x$fpl$fdiv) refers (Special) to usenofp.o(x$fpl$usenofp) for __I$use$fp
    fdiv.o(x$fpl$fdiv) refers to fretinf.o(x$fpl$fretinf) for __fpl_fretinf
    fdiv.o(x$fpl$fdiv) refers to fnaninf.o(x$fpl$fnaninf) for __fpl_fnaninf
    feqf.o(x$fpl$feqf) refers (Special) to usenofp.o(x$fpl$usenofp) for __I$use$fp
    feqf.o(x$fpl$feqf) refers to fnaninf.o(x$fpl$fnaninf) for __fpl_fnaninf
    feqf.o(x$fpl$feqf) refers to fcmpi.o(x$fpl$fcmpinf) for __fpl_fcmp_Inf
    ffix.o(x$fpl$ffix) refers (Special) to usenofp.o(x$fpl$usenofp) for __I$use$fp
    ffix.o(x$fpl$ffix) refers to fnaninf.o(x$fpl$fnaninf) for __fpl_fnaninf
    ffix.o(x$fpl$ffixr) refers (Special) to usenofp.o(x$fpl$usenofp) for __I$use$fp
    ffix.o(x$fpl$ffixr) refers to fnaninf.o(x$fpl$fnaninf) for __fpl_fnaninf
    ffixu.o(x$fpl$ffixu) refers (Special) to usenofp.o(x$fpl$usenofp) for __I$use$fp
    ffixu.o(x$fpl$ffixu) refers to fnaninf.o(x$fpl$fnaninf) for __fpl_fnaninf
    ffixu.o(x$fpl$ffixur) refers (Special) to usenofp.o(x$fpl$usenofp) for __I$use$fp
    ffixu.o(x$fpl$ffixur) refers to fnaninf.o(x$fpl$fnaninf) for __fpl_fnaninf
    fflt_clz.o(x$fpl$ffltu) refers (Special) to usenofp.o(x$fpl$usenofp) for __I$use$fp
    fflt_clz.o(x$fpl$fflt) refers (Special) to usenofp.o(x$fpl$usenofp) for __I$use$fp
    fflt_clz.o(x$fpl$ffltn) refers (Special) to usenofp.o(x$fpl$usenofp) for __I$use$fp
    fleqf.o(x$fpl$fleqf) refers (Special) to usenofp.o(x$fpl$usenofp) for __I$use$fp
    fleqf.o(x$fpl$fleqf) refers to fnaninf.o(x$fpl$fnaninf) for __fpl_fnaninf
    fleqf.o(x$fpl$fleqf) refers to fcmpi.o(x$fpl$fcmpinf) for __fpl_fcmp_Inf
    fmul.o(x$fpl$fmul) refers (Special) to usenofp.o(x$fpl$usenofp) for __I$use$fp
    fmul.o(x$fpl$fmul) refers to fretinf.o(x$fpl$fretinf) for __fpl_fretinf
    fmul.o(x$fpl$fmul) refers to fnaninf.o(x$fpl$fnaninf) for __fpl_fnaninf
    frleqf.o(x$fpl$frleqf) refers (Special) to usenofp.o(x$fpl$usenofp) for __I$use$fp
    frleqf.o(x$fpl$frleqf) refers to fleqf.o(x$fpl$fleqf) for __fpl_fcmple_InfNaN
    pow.o(i.__softfp_pow) refers (Special) to usenofp.o(x$fpl$usenofp) for __I$use$fp
    pow.o(i.__softfp_pow) refers to pow.o(i.pow) for pow
    pow.o(i.pow) refers (Special) to usenofp.o(x$fpl$usenofp) for __I$use$fp
    pow.o(i.pow) refers to daddsub_clz.o(x$fpl$dadd) for __aeabi_dadd
    pow.o(i.pow) refers to _rserrno.o(.text) for __set_errno
    pow.o(i.pow) refers to ddiv.o(x$fpl$ddiv) for __aeabi_ddiv
    pow.o(i.pow) refers to sqrt.o(i.sqrt) for sqrt
    pow.o(i.pow) refers to dmul.o(x$fpl$dmul) for __aeabi_dmul
    pow.o(i.pow) refers to scalbn.o(x$fpl$scalbn) for __ARM_scalbn
    pow.o(i.pow) refers to dunder.o(i.__mathlib_dbl_underflow) for __mathlib_dbl_underflow
    pow.o(i.pow) refers to daddsub_clz.o(x$fpl$dsub) for __aeabi_dsub
    pow.o(i.pow) refers to daddsub_clz.o(x$fpl$drsb) for __aeabi_drsub
    pow.o(i.pow) refers to qnan.o(.constdata) for __mathlib_zero
    pow.o(i.pow) refers to poly.o(i.__kernel_poly) for __kernel_poly
    pow.o(i.pow) refers to dflt_clz.o(x$fpl$dflt) for __aeabi_i2d
    pow.o(i.pow) refers to drleqf.o(x$fpl$drleqf) for __aeabi_cdrcmple
    pow.o(i.pow) refers to pow.o(.constdata) for .constdata
    pow.o(i.pow) refers to fpclassify.o(i.__ARM_fpclassify) for __ARM_fpclassify
    pow.o(.constdata) refers (Special) to usenofp.o(x$fpl$usenofp) for __I$use$fp
    pow_x.o(i.____softfp_pow$lsc) refers (Special) to usenofp.o(x$fpl$usenofp) for __I$use$fp
    pow_x.o(i.____softfp_pow$lsc) refers to pow_x.o(i.__pow$lsc) for __pow$lsc
    pow_x.o(i.__pow$lsc) refers (Special) to usenofp.o(x$fpl$usenofp) for __I$use$fp
    pow_x.o(i.__pow$lsc) refers to daddsub_clz.o(x$fpl$dadd) for __aeabi_dadd
    pow_x.o(i.__pow$lsc) refers to _rserrno.o(.text) for __set_errno
    pow_x.o(i.__pow$lsc) refers to ddiv.o(x$fpl$ddiv) for __aeabi_ddiv
    pow_x.o(i.__pow$lsc) refers to sqrt.o(i.sqrt) for sqrt
    pow_x.o(i.__pow$lsc) refers to dmul.o(x$fpl$dmul) for __aeabi_dmul
    pow_x.o(i.__pow$lsc) refers to dflt_clz.o(x$fpl$dflt) for __aeabi_i2d
    pow_x.o(i.__pow$lsc) refers to daddsub_clz.o(x$fpl$dsub) for __aeabi_dsub
    pow_x.o(i.__pow$lsc) refers to scalbn.o(x$fpl$scalbn) for __ARM_scalbn
    pow_x.o(i.__pow$lsc) refers to daddsub_clz.o(x$fpl$drsb) for __aeabi_drsub
    pow_x.o(i.__pow$lsc) refers to qnan.o(.constdata) for __mathlib_zero
    pow_x.o(i.__pow$lsc) refers to pow_x.o(.constdata) for .constdata
    pow_x.o(i.__pow$lsc) refers to poly.o(i.__kernel_poly) for __kernel_poly
    pow_x.o(i.__pow$lsc) refers to drleqf.o(x$fpl$drleqf) for __aeabi_cdrcmple
    pow_x.o(.constdata) refers (Special) to usenofp.o(x$fpl$usenofp) for __I$use$fp
    sqrt.o(i.__softfp_sqrt) refers (Special) to usenofp.o(x$fpl$usenofp) for __I$use$fp
    sqrt.o(i.__softfp_sqrt) refers to dsqrt_noumaal.o(x$fpl$dsqrt) for _dsqrt
    sqrt.o(i.__softfp_sqrt) refers to _rserrno.o(.text) for __set_errno
    sqrt.o(i.sqrt) refers (Special) to usenofp.o(x$fpl$usenofp) for __I$use$fp
    sqrt.o(i.sqrt) refers to dsqrt_noumaal.o(x$fpl$dsqrt) for _dsqrt
    sqrt.o(i.sqrt) refers to _rserrno.o(.text) for __set_errno
    sqrt_x.o(i.____softfp_sqrt$lsc) refers (Special) to usenofp.o(x$fpl$usenofp) for __I$use$fp
    sqrt_x.o(i.____softfp_sqrt$lsc) refers to dleqf.o(x$fpl$dleqf) for __aeabi_cdcmple
    sqrt_x.o(i.____softfp_sqrt$lsc) refers to _rserrno.o(.text) for __set_errno
    sqrt_x.o(i.____softfp_sqrt$lsc) refers to dsqrt_noumaal.o(x$fpl$dsqrt) for _dsqrt
    sqrt_x.o(i.__sqrt$lsc) refers (Special) to usenofp.o(x$fpl$usenofp) for __I$use$fp
    sqrt_x.o(i.__sqrt$lsc) refers to dleqf.o(x$fpl$dleqf) for __aeabi_cdcmple
    sqrt_x.o(i.__sqrt$lsc) refers to _rserrno.o(.text) for __set_errno
    sqrt_x.o(i.__sqrt$lsc) refers to dsqrt_noumaal.o(x$fpl$dsqrt) for _dsqrt
    rtentry.o(.ARM.Collect$$rtentry$$00000000) refers (Special) to rtentry2.o(.ARM.Collect$$rtentry$$0000000A) for __rt_entry_li
    rtentry.o(.ARM.Collect$$rtentry$$00000000) refers (Special) to rtentry2.o(.ARM.Collect$$rtentry$$0000000D) for __rt_entry_main
    rtentry.o(.ARM.Collect$$rtentry$$00000000) refers (Special) to rtentry2.o(.ARM.Collect$$rtentry$$0000000C) for __rt_entry_postli_1
    rtentry.o(.ARM.Collect$$rtentry$$00000000) refers (Special) to rtentry2.o(.ARM.Collect$$rtentry$$00000009) for __rt_entry_postsh_1
    rtentry.o(.ARM.Collect$$rtentry$$00000000) refers (Special) to rtentry2.o(.ARM.Collect$$rtentry$$00000002) for __rt_entry_presh_1
    rtentry.o(.ARM.Collect$$rtentry$$00000000) refers (Special) to rtentry4.o(.ARM.Collect$$rtentry$$00000004) for __rt_entry_sh
    rt_heap_descriptor.o(.text) refers to rt_heap_descriptor.o(.bss) for __rt_heap_descriptor_data
    rt_heap_descriptor_intlibspace.o(.text) refers to libspace.o(.bss) for __libspace_start
    init_alloc.o(.text) refers (Special) to hguard.o(.text) for __heap$guard
    init_alloc.o(.text) refers (Special) to libinit2.o(.ARM.Collect$$libinit$$00000003) for __rt_lib_init_heap_2
    init_alloc.o(.text) refers (Special) to maybetermalloc1.o(.emb_text) for _maybe_terminate_alloc
    init_alloc.o(.text) refers to h1_extend.o(.text) for __Heap_ProvideMemory
    init_alloc.o(.text) refers to defsig_rtmem_outer.o(.text) for __rt_SIGRTMEM
    init_alloc.o(.text) refers to rt_heap_descriptor_intlibspace.o(.text) for __rt_heap_descriptor
    init_alloc.o(.text) refers to h1_init.o(.text) for __Heap_Initialize
    h1_init_mt.o(.text) refers to mutex_dummy.o(.text) for _mutex_initialize
    _rserrno.o(.text) refers to rt_errno_addr_intlibspace.o(.text) for __aeabi_errno_addr
    _printf_intcommon.o(.text) refers (Weak) to _printf_pad.o(.text) for _printf_pre_padding
    _printf_intcommon.o(.text) refers (Weak) to _printf_pad.o(.text) for _printf_pre_padding
    _printf_intcommon.o(.text) refers (Weak) to _printf_pad.o(.text) for _printf_post_padding
    _printf_char_common.o(.text) refers to __printf_flags_ss_wp.o(.text) for __printf
    _printf_char.o(.text) refers (Weak) to _printf_str.o(.text) for _printf_str
    _printf_char_file.o(.text) refers to _printf_char_common.o(.text) for _printf_char_common
    _printf_char_file.o(.text) refers to ferror.o(.text) for ferror
    _printf_char_file.o(.text) refers to fputc.o(i.fputc) for fputc
    stdio_streams.o(.bss) refers (Special) to initio.o(.text) for _initio
    stdio_streams.o(.bss) refers (Special) to initio.o(.text) for _initio
    stdio_streams.o(.bss) refers (Special) to initio.o(.text) for _initio
    stdio_streams.o(.data) refers (Special) to initio.o(.text) for _initio
    stdio_streams.o(.data) refers (Special) to initio.o(.text) for _initio
    stdio_streams.o(.data) refers (Special) to initio.o(.text) for _initio
    _get_argv.o(.text) refers (Special) to hrguard.o(.text) for __heap_region$guard
    _get_argv.o(.text) refers to h1_alloc.o(.text) for malloc
    _get_argv.o(.text) refers to defsig_rtmem_outer.o(.text) for __rt_SIGRTMEM
    _get_argv.o(.text) refers to sys_command.o(.text) for _sys_command_string
    libinit2.o(.ARM.Collect$$libinit$$00000003) refers (Weak) to init_alloc.o(.text) for _init_alloc
    libinit2.o(.ARM.Collect$$libinit$$0000000E) refers to libinit2.o(.ARM.Collect$$libinit$$0000000D) for .ARM.Collect$$libinit$$0000000D
    libinit2.o(.ARM.Collect$$libinit$$00000010) refers to libinit2.o(.ARM.Collect$$libinit$$0000000D) for .ARM.Collect$$libinit$$0000000D
    libinit2.o(.ARM.Collect$$libinit$$00000012) refers to libinit2.o(.ARM.Collect$$libinit$$0000000D) for .ARM.Collect$$libinit$$0000000D
    libinit2.o(.ARM.Collect$$libinit$$00000014) refers to libinit2.o(.ARM.Collect$$libinit$$0000000D) for .ARM.Collect$$libinit$$0000000D
    libinit2.o(.ARM.Collect$$libinit$$00000016) refers to libinit2.o(.ARM.Collect$$libinit$$0000000D) for .ARM.Collect$$libinit$$0000000D
    libinit2.o(.ARM.Collect$$libinit$$00000022) refers (Weak) to initio.o(.text) for _initio
    libinit2.o(.ARM.Collect$$libinit$$00000024) refers to argv_veneer.o(.emb_text) for __ARM_argv_veneer
    libinit2.o(.ARM.Collect$$libinit$$00000025) refers to argv_veneer.o(.emb_text) for __ARM_argv_veneer
    dcmpi.o(x$fpl$dcmpinf) refers (Special) to usenofp.o(x$fpl$usenofp) for __I$use$fp
    dnaninf.o(x$fpl$dnaninf) refers (Special) to usenofp.o(x$fpl$usenofp) for __I$use$fp
    dretinf.o(x$fpl$dretinf) refers (Special) to usenofp.o(x$fpl$usenofp) for __I$use$fp
    dsqrt_noumaal.o(x$fpl$dsqrt) refers (Special) to usenofp.o(x$fpl$usenofp) for __I$use$fp
    dsqrt_noumaal.o(x$fpl$dsqrt) refers to dnaninf.o(x$fpl$dnaninf) for __fpl_dnaninf
    fcmpi.o(x$fpl$fcmpinf) refers (Special) to usenofp.o(x$fpl$usenofp) for __I$use$fp
    fnaninf.o(x$fpl$fnaninf) refers (Special) to usenofp.o(x$fpl$usenofp) for __I$use$fp
    fretinf.o(x$fpl$fretinf) refers (Special) to usenofp.o(x$fpl$usenofp) for __I$use$fp
    scalbn.o(x$fpl$scalbn) refers (Special) to usenofp.o(x$fpl$usenofp) for __I$use$fp
    scalbn.o(x$fpl$scalbn) refers to dcheck1.o(x$fpl$dcheck1) for __fpl_dcheck_NaN1
    dunder.o(i.__mathlib_dbl_underflow) refers to scalbn.o(x$fpl$scalbn) for __ARM_scalbn
    fpclassify.o(i.__ARM_fpclassify) refers (Special) to usenofp.o(x$fpl$usenofp) for __I$use$fp
    poly.o(i.__kernel_poly) refers (Special) to usenofp.o(x$fpl$usenofp) for __I$use$fp
    poly.o(i.__kernel_poly) refers to dmul.o(x$fpl$dmul) for __aeabi_dmul
    poly.o(i.__kernel_poly) refers to daddsub_clz.o(x$fpl$dadd) for __aeabi_dadd
    qnan.o(.constdata) refers (Special) to usenofp.o(x$fpl$usenofp) for __I$use$fp
    sys_command.o(.text) refers (Special) to use_no_semi.o(.text) for __I$use$semihosting
    sys_command.o(.text) refers (Special) to indicate_semi.o(.text) for __semihosting_library_function
    libspace.o(.text) refers to libspace.o(.bss) for __libspace_start
    rtentry2.o(.ARM.Collect$$rtentry$$00000008) refers to boardinit2.o(.text) for _platform_post_stackheap_init
    rtentry2.o(.ARM.Collect$$rtentry$$0000000A) refers to libinit.o(.ARM.Collect$$libinit$$00000000) for __rt_lib_init
    rtentry2.o(.ARM.Collect$$rtentry$$0000000B) refers to boardinit3.o(.text) for _platform_post_lib_init
    rtentry2.o(.ARM.Collect$$rtentry$$0000000D) refers to system_main.o(.text) for main
    rtentry2.o(.ARM.Collect$$rtentry$$0000000D) refers to exit.o(.text) for exit
    rtentry2.o(.ARM.exidx) refers to rtentry2.o(.ARM.Collect$$rtentry$$00000001) for .ARM.Collect$$rtentry$$00000001
    rtentry2.o(.ARM.exidx) refers to rtentry2.o(.ARM.Collect$$rtentry$$00000008) for .ARM.Collect$$rtentry$$00000008
    rtentry2.o(.ARM.exidx) refers to rtentry2.o(.ARM.Collect$$rtentry$$0000000A) for .ARM.Collect$$rtentry$$0000000A
    rtentry2.o(.ARM.exidx) refers to rtentry2.o(.ARM.Collect$$rtentry$$0000000B) for .ARM.Collect$$rtentry$$0000000B
    rtentry2.o(.ARM.exidx) refers to rtentry2.o(.ARM.Collect$$rtentry$$0000000D) for .ARM.Collect$$rtentry$$0000000D
    rtentry4.o(.ARM.Collect$$rtentry$$00000004) refers to sys_stackheap_outer.o(.text) for __user_setup_stackheap
    rtentry4.o(.ARM.exidx) refers to rtentry4.o(.ARM.Collect$$rtentry$$00000004) for .ARM.Collect$$rtentry$$00000004
    aeabi_ldiv0_sigfpe.o(.text) refers to rt_div0.o(.text) for __rt_div0
    rt_errno_addr.o(.text) refers to rt_errno_addr.o(.bss) for __aeabi_errno_addr_data
    rt_errno_addr_intlibspace.o(.text) refers to libspace.o(.bss) for __libspace_start
    maybetermalloc2.o(.emb_text) refers (Special) to term_alloc.o(.text) for _terminate_alloc
    h1_extend.o(.text) refers to h1_free.o(.text) for free
    h1_extend_mt.o(.text) refers to h1_free_mt.o(.text) for _free_internal
    fputc.o(i.fputc) refers to flsbuf.o(.text) for __flsbuf_byte
    initio.o(.text) refers (Special) to libinit2.o(.ARM.Collect$$libinit$$00000022) for __rt_lib_init_stdio_2
    initio.o(.text) refers (Special) to libshutdown2.o(.ARM.Collect$$libshutdown$$00000002) for __rt_lib_shutdown_stdio_2
    initio.o(.text) refers to rt_memclr_w.o(.text) for __aeabi_memclr4
    initio.o(.text) refers to fopen.o(.text) for freopen
    initio.o(.text) refers to defsig_rtred_outer.o(.text) for __rt_SIGRTRED
    initio.o(.text) refers to setvbuf.o(.text) for setvbuf
    initio.o(.text) refers to fclose.o(.text) for _fclose_internal
    initio.o(.text) refers to h1_free.o(.text) for free
    initio.o(.text) refers to stdio_streams.o(.bss) for __stdin
    initio.o(.text) refers to stdio_streams.o(.bss) for __stdout
    initio.o(.text) refers to stdio_streams.o(.bss) for __stderr
    initio.o(.text) refers to stdio_streams.o(.data) for __aeabi_stdin
    initio.o(.text) refers to stdio_streams.o(.data) for __aeabi_stdout
    initio.o(.text) refers to stdio_streams.o(.data) for __aeabi_stderr
    initio.o(.text) refers to sys_io.o(.constdata) for __stdin_name
    initio.o(.text) refers to sys_io.o(.constdata) for __stdout_name
    initio.o(.text) refers to sys_io.o(.constdata) for __stderr_name
    initio_locked.o(.text) refers (Special) to libinit2.o(.ARM.Collect$$libinit$$00000022) for __rt_lib_init_stdio_2
    initio_locked.o(.text) refers (Special) to libshutdown2.o(.ARM.Collect$$libshutdown$$00000002) for __rt_lib_shutdown_stdio_2
    initio_locked.o(.text) refers to rt_memclr_w.o(.text) for __aeabi_memclr4
    initio_locked.o(.text) refers to fopen.o(.text) for freopen
    initio_locked.o(.text) refers to defsig_rtred_outer.o(.text) for __rt_SIGRTRED
    initio_locked.o(.text) refers to setvbuf.o(.text) for setvbuf
    initio_locked.o(.text) refers to fclose.o(.text) for _fclose_internal
    initio_locked.o(.text) refers to h1_free.o(.text) for free
    initio_locked.o(.text) refers to stdio_streams.o(.bss) for __stdin
    initio_locked.o(.text) refers to stdio_streams.o(.bss) for __stdout
    initio_locked.o(.text) refers to stdio_streams.o(.bss) for __stderr
    initio_locked.o(.text) refers to stdio_streams.o(.data) for __aeabi_stdin
    initio_locked.o(.text) refers to stdio_streams.o(.data) for __aeabi_stdout
    initio_locked.o(.text) refers to stdio_streams.o(.data) for __aeabi_stderr
    initio_locked.o(.text) refers to streamlock.o(.data) for _stream_list_lock
    initio_locked.o(.text) refers to sys_io.o(.constdata) for __stdin_name
    initio_locked.o(.text) refers to sys_io.o(.constdata) for __stdout_name
    initio_locked.o(.text) refers to sys_io.o(.constdata) for __stderr_name
    defsig_rtmem_outer.o(.text) refers to defsig_rtmem_inner.o(.text) for __rt_SIGRTMEM_inner
    defsig_rtmem_outer.o(.text) refers to defsig_exit.o(.text) for __sig_exit
    defsig_rtmem_formal.o(.text) refers to rt_raise.o(.text) for __rt_raise
    heapauxa.o(.text) refers to heapauxa.o(.data) for .data
    argv_veneer.o(.emb_text) refers to no_argv.o(.text) for __ARM_get_argv
    dcheck1.o(x$fpl$dcheck1) refers (Special) to usenofp.o(x$fpl$usenofp) for __I$use$fp
    dcheck1.o(x$fpl$dcheck1) refers to retnan.o(x$fpl$retnan) for __fpl_return_NaN
    sys_io.o(.text) refers (Special) to use_no_semi.o(.text) for __I$use$semihosting
    sys_io.o(.text) refers (Special) to indicate_semi.o(.text) for __semihosting_library_function
    sys_io.o(.text) refers to strlen.o(.text) for strlen
    sys_io.o(.constdata) refers (Special) to use_no_semi.o(.text) for __I$use$semihosting
    sys_io.o(.constdata) refers (Special) to indicate_semi.o(.text) for __semihosting_library_function
    sys_io.o(.constdata) refers (Special) to use_no_semi.o(.text) for __I$use$semihosting
    sys_io.o(.constdata) refers (Special) to indicate_semi.o(.text) for __semihosting_library_function
    sys_io.o(.constdata) refers (Special) to use_no_semi.o(.text) for __I$use$semihosting
    sys_io.o(.constdata) refers (Special) to indicate_semi.o(.text) for __semihosting_library_function
    sys_stackheap_outer.o(.text) refers to libspace.o(.text) for __user_perproc_libspace
    sys_stackheap_outer.o(.text) refers to startup_stm32f10x_hd.o(.text) for __user_initial_stackheap
    rt_div0.o(.text) refers to defsig_fpe_outer.o(.text) for __rt_SIGFPE
    rt_raise.o(.text) refers to __raise.o(.text) for __raise
    rt_raise.o(.text) refers to sys_exit.o(.text) for _sys_exit
    term_alloc.o(.text) refers (Special) to libshutdown2.o(.ARM.Collect$$libshutdown$$0000000D) for __rt_lib_shutdown_heap_2
    term_alloc.o(.text) refers to rt_heap_descriptor_intlibspace.o(.text) for __rt_heap_descriptor
    term_alloc.o(.text) refers to h1_final.o(.text) for __Heap_Finalize
    flsbuf.o(.text) refers to stdio.o(.text) for _deferredlazyseek
    flsbuf.o(.text) refers to sys_io.o(.text) for _sys_flen
    flsbuf.o(.text) refers to h1_alloc.o(.text) for malloc
    streamlock.o(.data) refers (Special) to initio.o(.text) for _initio
    fopen.o(.text) refers to fclose.o(.text) for _fclose_internal
    fopen.o(.text) refers to sys_io.o(.text) for _sys_open
    fopen.o(.text) refers to fseek.o(.text) for _fseek
    fopen.o(.text) refers to h1_alloc.o(.text) for malloc
    fopen.o(.text) refers to rt_memclr_w.o(.text) for __aeabi_memclr4
    fopen.o(.text) refers to stdio_streams.o(.bss) for __stdin
    fclose.o(.text) refers to stdio.o(.text) for _fflush
    fclose.o(.text) refers to sys_io.o(.text) for _sys_close
    fclose.o(.text) refers to h1_free.o(.text) for free
    fclose.o(.text) refers to rt_memclr_w.o(.text) for __aeabi_memclr4
    fopen_locked.o(.text) refers to fclose.o(.text) for _fclose_internal
    fopen_locked.o(.text) refers to sys_io.o(.text) for _sys_open
    fopen_locked.o(.text) refers to fseek.o(.text) for _fseek
    fopen_locked.o(.text) refers to h1_alloc.o(.text) for malloc
    fopen_locked.o(.text) refers to rt_memclr_w.o(.text) for __aeabi_memclr4
    fopen_locked.o(.text) refers to streamlock.o(.data) for _stream_list_lock
    fopen_locked.o(.text) refers to stdio_streams.o(.bss) for __stdin
    exit.o(.text) refers to rtexit.o(.ARM.Collect$$rtexit$$00000000) for __rt_exit
    defsig_exit.o(.text) refers to sys_exit.o(.text) for _sys_exit
    defsig_rtred_outer.o(.text) refers to defsig_rtred_inner.o(.text) for __rt_SIGRTRED_inner
    defsig_rtred_outer.o(.text) refers to defsig_exit.o(.text) for __sig_exit
    defsig_rtred_formal.o(.text) refers to rt_raise.o(.text) for __rt_raise
    defsig_rtmem_inner.o(.text) refers to defsig_general.o(.text) for __default_signal_display
    _get_argv_nomalloc.o(.text) refers (Special) to hrguard.o(.text) for __heap_region$guard
    _get_argv_nomalloc.o(.text) refers to defsig_rtmem_outer.o(.text) for __rt_SIGRTMEM
    _get_argv_nomalloc.o(.text) refers to sys_command.o(.text) for _sys_command_string
    libinit.o(.ARM.Collect$$libinit$$00000000) refers (Special) to libinit2.o(.ARM.Collect$$libinit$$0000002C) for __rt_lib_init_alloca_1
    libinit.o(.ARM.Collect$$libinit$$00000000) refers (Special) to libinit2.o(.ARM.Collect$$libinit$$0000002A) for __rt_lib_init_argv_1
    libinit.o(.ARM.Collect$$libinit$$00000000) refers (Special) to libinit2.o(.ARM.Collect$$libinit$$00000019) for __rt_lib_init_atexit_1
    libinit.o(.ARM.Collect$$libinit$$00000000) refers (Special) to libinit2.o(.ARM.Collect$$libinit$$0000001F) for __rt_lib_init_clock_1
    libinit.o(.ARM.Collect$$libinit$$00000000) refers (Special) to libinit2.o(.ARM.Collect$$libinit$$00000030) for __rt_lib_init_cpp_1
    libinit.o(.ARM.Collect$$libinit$$00000000) refers (Special) to libinit2.o(.ARM.Collect$$libinit$$0000002E) for __rt_lib_init_exceptions_1
    libinit.o(.ARM.Collect$$libinit$$00000000) refers (Special) to libinit2.o(.ARM.Collect$$libinit$$00000002) for __rt_lib_init_fp_1
    libinit.o(.ARM.Collect$$libinit$$00000000) refers (Special) to libinit2.o(.ARM.Collect$$libinit$$0000001D) for __rt_lib_init_fp_trap_1
    libinit.o(.ARM.Collect$$libinit$$00000000) refers (Special) to libinit2.o(.ARM.Collect$$libinit$$00000021) for __rt_lib_init_getenv_1
    libinit.o(.ARM.Collect$$libinit$$00000000) refers (Special) to libinit2.o(.ARM.Collect$$libinit$$00000008) for __rt_lib_init_heap_1
    libinit.o(.ARM.Collect$$libinit$$00000000) refers (Special) to libinit2.o(.ARM.Collect$$libinit$$0000000F) for __rt_lib_init_lc_collate_1
    libinit.o(.ARM.Collect$$libinit$$00000000) refers (Special) to libinit2.o(.ARM.Collect$$libinit$$00000011) for __rt_lib_init_lc_ctype_1
    libinit.o(.ARM.Collect$$libinit$$00000000) refers (Special) to libinit2.o(.ARM.Collect$$libinit$$00000013) for __rt_lib_init_lc_monetary_1
    libinit.o(.ARM.Collect$$libinit$$00000000) refers (Special) to libinit2.o(.ARM.Collect$$libinit$$00000015) for __rt_lib_init_lc_numeric_1
    libinit.o(.ARM.Collect$$libinit$$00000000) refers (Special) to libinit2.o(.ARM.Collect$$libinit$$00000017) for __rt_lib_init_lc_time_1
    libinit.o(.ARM.Collect$$libinit$$00000000) refers (Special) to libinit2.o(.ARM.Collect$$libinit$$0000000C) for __rt_lib_init_rand_1
    libinit.o(.ARM.Collect$$libinit$$00000000) refers (Special) to libinit2.o(.ARM.Collect$$libinit$$00000031) for __rt_lib_init_return
    libinit.o(.ARM.Collect$$libinit$$00000000) refers (Special) to libinit2.o(.ARM.Collect$$libinit$$0000001B) for __rt_lib_init_signal_1
    libinit.o(.ARM.Collect$$libinit$$00000000) refers (Special) to libinit2.o(.ARM.Collect$$libinit$$00000023) for __rt_lib_init_stdio_1
    libinit.o(.ARM.Collect$$libinit$$00000000) refers (Special) to libinit2.o(.ARM.Collect$$libinit$$0000000A) for __rt_lib_init_user_alloc_1
    libshutdown2.o(.ARM.Collect$$libshutdown$$00000002) refers (Weak) to initio.o(.text) for _terminateio
    libshutdown2.o(.ARM.Collect$$libshutdown$$0000000C) refers (Weak) to term_alloc.o(.text) for _terminate_alloc
    flsbuf_fwide.o(.text) refers to flsbuf.o(.text) for __flsbuf
    retnan.o(x$fpl$retnan) refers (Special) to usenofp.o(x$fpl$usenofp) for __I$use$fp
    retnan.o(x$fpl$retnan) refers to trapv.o(x$fpl$trapveneer) for __fpl_cmpreturn
    sys_exit.o(.text) refers (Special) to use_no_semi.o(.text) for __I$use$semihosting
    sys_exit.o(.text) refers (Special) to indicate_semi.o(.text) for __semihosting_library_function
    rtexit.o(.ARM.Collect$$rtexit$$00000000) refers (Special) to rtexit2.o(.ARM.Collect$$rtexit$$00000004) for __rt_exit_exit
    rtexit.o(.ARM.Collect$$rtexit$$00000000) refers (Special) to rtexit2.o(.ARM.Collect$$rtexit$$00000003) for __rt_exit_ls
    rtexit.o(.ARM.Collect$$rtexit$$00000000) refers (Special) to rtexit2.o(.ARM.Collect$$rtexit$$00000002) for __rt_exit_prels_1
    rtexit.o(.ARM.exidx) refers (Special) to rtexit2.o(.ARM.Collect$$rtexit$$00000004) for __rt_exit_exit
    rtexit.o(.ARM.exidx) refers (Special) to rtexit2.o(.ARM.Collect$$rtexit$$00000003) for __rt_exit_ls
    rtexit.o(.ARM.exidx) refers (Special) to rtexit2.o(.ARM.Collect$$rtexit$$00000002) for __rt_exit_prels_1
    rtexit.o(.ARM.exidx) refers to rtexit.o(.ARM.Collect$$rtexit$$00000000) for .ARM.Collect$$rtexit$$00000000
    _printf_char_file_locked.o(.text) refers to _printf_char_common.o(.text) for _printf_char_common
    _printf_char_file_locked.o(.text) refers to fputc.o(i._fputc$unlocked) for _fputc$unlocked
    fseek.o(.text) refers to sys_io.o(.text) for _sys_istty
    fseek.o(.text) refers to ftell.o(.text) for _ftell_internal
    fseek.o(.text) refers to stdio.o(.text) for _seterr
    stdio.o(.text) refers to sys_io.o(.text) for _sys_seek
    fwritefast.o(.text) refers to stdio.o(.text) for _writebuf
    fwritefast.o(.text) refers to flsbuf.o(.text) for __flsbuf_byte
    fwritefast.o(.text) refers to rt_memcpy_v6.o(.text) for __aeabi_memcpy
    fwritefast_locked.o(.text) refers to stdio.o(.text) for _writebuf
    fwritefast_locked.o(.text) refers to flsbuf.o(.text) for __flsbuf_byte
    fwritefast_locked.o(.text) refers to rt_memcpy_v6.o(.text) for __aeabi_memcpy
    __raise.o(.text) refers to defsig.o(CL$$defsig) for __default_signal_handler
    defsig_general.o(.text) refers to sys_wrch.o(.text) for _ttywrch
    defsig_fpe_outer.o(.text) refers to defsig_fpe_inner.o(.text) for __rt_SIGFPE_inner
    defsig_fpe_outer.o(.text) refers to defsig_exit.o(.text) for __sig_exit
    defsig_fpe_formal.o(.text) refers to rt_raise.o(.text) for __rt_raise
    defsig_rtred_inner.o(.text) refers to defsig_general.o(.text) for __default_signal_display
    assert_stdio.o(.text) refers to fputs.o(.text) for fputs
    assert_stdio.o(.text) refers to fflush.o(.text) for fflush
    assert_stdio.o(.text) refers to stdio_streams.o(.bss) for __stderr
    trapv.o(x$fpl$trapveneer) refers (Special) to usenofp.o(x$fpl$usenofp) for __I$use$fp
    sys_wrch.o(.text) refers (Special) to use_no_semi.o(.text) for __I$use$semihosting
    sys_wrch.o(.text) refers (Special) to indicate_semi.o(.text) for __semihosting_library_function
    rtexit2.o(.ARM.Collect$$rtexit$$00000003) refers to libshutdown.o(.ARM.Collect$$libshutdown$$00000000) for __rt_lib_shutdown
    rtexit2.o(.ARM.Collect$$rtexit$$00000004) refers to sys_exit.o(.text) for _sys_exit
    rtexit2.o(.ARM.exidx) refers to rtexit2.o(.ARM.Collect$$rtexit$$00000001) for .ARM.Collect$$rtexit$$00000001
    rtexit2.o(.ARM.exidx) refers to rtexit2.o(.ARM.Collect$$rtexit$$00000003) for .ARM.Collect$$rtexit$$00000003
    rtexit2.o(.ARM.exidx) refers to rtexit2.o(.ARM.Collect$$rtexit$$00000004) for .ARM.Collect$$rtexit$$00000004
    fflush.o(.text) refers to stdio.o(.text) for _fflush
    fflush.o(.text) refers to fseek.o(.text) for _fseek
    fflush.o(.text) refers to stdio_streams.o(.bss) for __stdin
    fputs.o(.text) refers to fputc.o(i.fputc) for fputc
    ftell.o(.text) refers to rt_errno_addr_intlibspace.o(.text) for __aeabi_errno_addr
    fflush_locked.o(.text) refers to stdio.o(.text) for _fflush
    fflush_locked.o(.text) refers to fseek.o(.text) for _fseek
    fflush_locked.o(.text) refers to fflush.o(.text) for _do_fflush
    fflush_locked.o(.text) refers to streamlock.o(.data) for _stream_list_lock
    fflush_locked.o(.text) refers to stdio_streams.o(.bss) for __stdin
    defsig_fpe_inner.o(.text) refers to defsig_general.o(.text) for __default_signal_display
    defsig.o(CL$$defsig) refers to defsig_fpe_inner.o(.text) for __rt_SIGFPE_inner
    defsig.o(CL$$defsig) refers to defsig_rtred_inner.o(.text) for __rt_SIGRTRED_inner
    defsig.o(CL$$defsig) refers to defsig_rtmem_inner.o(.text) for __rt_SIGRTMEM_inner
    defsig_abrt_inner.o(.text) refers to defsig_general.o(.text) for __default_signal_display
    defsig_stak_inner.o(.text) refers to defsig_general.o(.text) for __default_signal_display
    defsig_pvfn_inner.o(.text) refers to defsig_general.o(.text) for __default_signal_display
    defsig_cppl_inner.o(.text) refers to defsig_general.o(.text) for __default_signal_display
    defsig_segv_inner.o(.text) refers to defsig_general.o(.text) for __default_signal_display
    defsig_other.o(.text) refers to defsig_general.o(.text) for __default_signal_display
    libshutdown.o(.ARM.Collect$$libshutdown$$00000000) refers (Special) to libshutdown2.o(.ARM.Collect$$libshutdown$$00000006) for __rt_lib_shutdown_fp_trap_1
    libshutdown.o(.ARM.Collect$$libshutdown$$00000000) refers (Special) to libshutdown2.o(.ARM.Collect$$libshutdown$$0000000E) for __rt_lib_shutdown_heap_1
    libshutdown.o(.ARM.Collect$$libshutdown$$00000000) refers (Special) to libshutdown2.o(.ARM.Collect$$libshutdown$$0000000F) for __rt_lib_shutdown_return
    libshutdown.o(.ARM.Collect$$libshutdown$$00000000) refers (Special) to libshutdown2.o(.ARM.Collect$$libshutdown$$00000009) for __rt_lib_shutdown_signal_1
    libshutdown.o(.ARM.Collect$$libshutdown$$00000000) refers (Special) to libshutdown2.o(.ARM.Collect$$libshutdown$$00000003) for __rt_lib_shutdown_stdio_1
    libshutdown.o(.ARM.Collect$$libshutdown$$00000000) refers (Special) to libshutdown2.o(.ARM.Collect$$libshutdown$$0000000B) for __rt_lib_shutdown_user_alloc_1


==============================================================================

Removing Unused input sections from the image.

    Removing core_cm3.o(.emb_text), (32 bytes).
    Removing stm32f10x_exti.o(.text), (284 bytes).
    Removing stm32f10x_spi.o(.text), (780 bytes).
    Removing system_interrupt.o(.text), (36 bytes).
    Removing fattester.o(.text), (1496 bytes).
    Removing exfuns.o(.bss), (68 bytes).

6 unused section(s) (total 2696 bytes) removed from the image.

==============================================================================

Image Symbol Table

    Local Symbols

    Symbol Name                              Value     Ov Type        Size  Object(Section)

    ../clib/angel/boardlib.s                 0x00000000   Number         0  boardshut.o ABSOLUTE
    ../clib/angel/boardlib.s                 0x00000000   Number         0  boardinit3.o ABSOLUTE
    ../clib/angel/boardlib.s                 0x00000000   Number         0  boardinit2.o ABSOLUTE
    ../clib/angel/boardlib.s                 0x00000000   Number         0  boardinit1.o ABSOLUTE
    ../clib/angel/dczerorl2.s                0x00000000   Number         0  __dczerorl2.o ABSOLUTE
    ../clib/angel/handlers.s                 0x00000000   Number         0  __scatter_zi.o ABSOLUTE
    ../clib/angel/kernel.s                   0x00000000   Number         0  rtexit.o ABSOLUTE
    ../clib/angel/kernel.s                   0x00000000   Number         0  rtentry4.o ABSOLUTE
    ../clib/angel/kernel.s                   0x00000000   Number         0  rtentry2.o ABSOLUTE
    ../clib/angel/kernel.s                   0x00000000   Number         0  rtexit2.o ABSOLUTE
    ../clib/angel/kernel.s                   0x00000000   Number         0  rtentry.o ABSOLUTE
    ../clib/angel/rt.s                       0x00000000   Number         0  rt_errno_addr_intlibspace.o ABSOLUTE
    ../clib/angel/rt.s                       0x00000000   Number         0  aeabi_ldiv0_sigfpe.o ABSOLUTE
    ../clib/angel/rt.s                       0x00000000   Number         0  aeabi_ldiv0.o ABSOLUTE
    ../clib/angel/rt.s                       0x00000000   Number         0  rt_errno_addr.o ABSOLUTE
    ../clib/angel/rt.s                       0x00000000   Number         0  rt_div0.o ABSOLUTE
    ../clib/angel/rt.s                       0x00000000   Number         0  rt_raise.o ABSOLUTE
    ../clib/angel/rt.s                       0x00000000   Number         0  rt_heap_descriptor_intlibspace.o ABSOLUTE
    ../clib/angel/rt.s                       0x00000000   Number         0  rt_heap_descriptor.o ABSOLUTE
    ../clib/angel/scatter.s                  0x00000000   Number         0  __scatter.o ABSOLUTE
    ../clib/angel/startup.s                  0x00000000   Number         0  __main.o ABSOLUTE
    ../clib/angel/sys.s                      0x00000000   Number         0  libspace.o ABSOLUTE
    ../clib/angel/sys.s                      0x00000000   Number         0  sys_stackheap_outer.o ABSOLUTE
    ../clib/angel/sys.s                      0x00000000   Number         0  use_no_semi.o ABSOLUTE
    ../clib/angel/sys.s                      0x00000000   Number         0  indicate_semi.o ABSOLUTE
    ../clib/angel/sys.s                      0x00000000   Number         0  mutex_dummy.o ABSOLUTE
    ../clib/angel/sysapp.c                   0x00000000   Number         0  sys_exit.o ABSOLUTE
    ../clib/angel/sysapp.c                   0x00000000   Number         0  sys_command.o ABSOLUTE
    ../clib/angel/sysapp.c                   0x00000000   Number         0  sys_wrch.o ABSOLUTE
    ../clib/angel/sysapp.c                   0x00000000   Number         0  sys_io.o ABSOLUTE
    ../clib/armsys.c                         0x00000000   Number         0  _get_argv_nomalloc.o ABSOLUTE
    ../clib/armsys.c                         0x00000000   Number         0  argv_veneer.o ABSOLUTE
    ../clib/armsys.c                         0x00000000   Number         0  no_argv.o ABSOLUTE
    ../clib/armsys.c                         0x00000000   Number         0  argv_veneer.o ABSOLUTE
    ../clib/armsys.c                         0x00000000   Number         0  _get_argv.o ABSOLUTE
    ../clib/assert.c                         0x00000000   Number         0  assert_stdio.o ABSOLUTE
    ../clib/fenv.c                           0x00000000   Number         0  _rserrno.o ABSOLUTE
    ../clib/heap1.c                          0x00000000   Number         0  h1_free.o ABSOLUTE
    ../clib/heap1.c                          0x00000000   Number         0  h1_alloc_mt.o ABSOLUTE
    ../clib/heap1.c                          0x00000000   Number         0  h1_free_mt.o ABSOLUTE
    ../clib/heap1.c                          0x00000000   Number         0  h1_init_mt.o ABSOLUTE
    ../clib/heap1.c                          0x00000000   Number         0  h1_extend_mt.o ABSOLUTE
    ../clib/heap1.c                          0x00000000   Number         0  h1_extend.o ABSOLUTE
    ../clib/heap1.c                          0x00000000   Number         0  h1_alloc.o ABSOLUTE
    ../clib/heap1.c                          0x00000000   Number         0  h1_final.o ABSOLUTE
    ../clib/heap1.c                          0x00000000   Number         0  h1_final_mt.o ABSOLUTE
    ../clib/heap1.c                          0x00000000   Number         0  h1_init.o ABSOLUTE
    ../clib/heap2.c                          0x00000000   Number         0  fdtree.o ABSOLUTE
    ../clib/heap2.c                          0x00000000   Number         0  heap2.o ABSOLUTE
    ../clib/heap2.c                          0x00000000   Number         0  heap2mt.o ABSOLUTE
    ../clib/heapalloc.c                      0x00000000   Number         0  hguard.o ABSOLUTE
    ../clib/heapalloc.c                      0x00000000   Number         0  maybetermalloc2.o ABSOLUTE
    ../clib/heapalloc.c                      0x00000000   Number         0  maybetermalloc1.o ABSOLUTE
    ../clib/heapalloc.c                      0x00000000   Number         0  init_alloc.o ABSOLUTE
    ../clib/heapalloc.c                      0x00000000   Number         0  malloc.o ABSOLUTE
    ../clib/heapalloc.c                      0x00000000   Number         0  free.o ABSOLUTE
    ../clib/heapalloc.c                      0x00000000   Number         0  heapstubs.o ABSOLUTE
    ../clib/heapalloc.c                      0x00000000   Number         0  maybetermalloc2.o ABSOLUTE
    ../clib/heapalloc.c                      0x00000000   Number         0  term_alloc.o ABSOLUTE
    ../clib/heapalloc.c                      0x00000000   Number         0  maybetermalloc1.o ABSOLUTE
    ../clib/heapalloc.c                      0x00000000   Number         0  hrguard.o ABSOLUTE
    ../clib/heapaux.c                        0x00000000   Number         0  heapauxa.o ABSOLUTE
    ../clib/heapaux.c                        0x00000000   Number         0  heapauxi.o ABSOLUTE
    ../clib/libinit.s                        0x00000000   Number         0  libshutdown2.o ABSOLUTE
    ../clib/libinit.s                        0x00000000   Number         0  libinit.o ABSOLUTE
    ../clib/libinit.s                        0x00000000   Number         0  libinit2.o ABSOLUTE
    ../clib/libinit.s                        0x00000000   Number         0  libshutdown.o ABSOLUTE
    ../clib/longlong.s                       0x00000000   Number         0  lludivv7m.o ABSOLUTE
    ../clib/longlong.s                       0x00000000   Number         0  llsdiv.o ABSOLUTE
    ../clib/memcpset.s                       0x00000000   Number         0  strcmpv7m.o ABSOLUTE
    ../clib/memcpset.s                       0x00000000   Number         0  rt_memclr_w.o ABSOLUTE
    ../clib/memcpset.s                       0x00000000   Number         0  rt_memclr.o ABSOLUTE
    ../clib/memcpset.s                       0x00000000   Number         0  rt_memcpy_v6.o ABSOLUTE
    ../clib/memcpset.s                       0x00000000   Number         0  aeabi_memset.o ABSOLUTE
    ../clib/memcpset.s                       0x00000000   Number         0  rt_memcpy_w.o ABSOLUTE
    ../clib/misc.s                           0x00000000   Number         0  printf_stubs.o ABSOLUTE
    ../clib/printf.c                         0x00000000   Number         0  noretval__2sprintf.o ABSOLUTE
    ../clib/printf.c                         0x00000000   Number         0  _printf_pad.o ABSOLUTE
    ../clib/printf.c                         0x00000000   Number         0  _printf_str.o ABSOLUTE
    ../clib/printf.c                         0x00000000   Number         0  __printf_flags.o ABSOLUTE
    ../clib/printf.c                         0x00000000   Number         0  _printf_char_file_locked.o ABSOLUTE
    ../clib/printf.c                         0x00000000   Number         0  __printf_ss.o ABSOLUTE
    ../clib/printf.c                         0x00000000   Number         0  __printf_flags_ss.o ABSOLUTE
    ../clib/printf.c                         0x00000000   Number         0  __printf_wp.o ABSOLUTE
    ../clib/printf.c                         0x00000000   Number         0  _printf_intcommon.o ABSOLUTE
    ../clib/printf.c                         0x00000000   Number         0  __printf_flags_ss_wp.o ABSOLUTE
    ../clib/printf.c                         0x00000000   Number         0  _printf_char_file.o ABSOLUTE
    ../clib/printf.c                         0x00000000   Number         0  _printf_char.o ABSOLUTE
    ../clib/printf.c                         0x00000000   Number         0  __printf_ss_wp.o ABSOLUTE
    ../clib/printf.c                         0x00000000   Number         0  _sputc.o ABSOLUTE
    ../clib/printf.c                         0x00000000   Number         0  _printf_char_common.o ABSOLUTE
    ../clib/printf.c                         0x00000000   Number         0  __printf_nopercent.o ABSOLUTE
    ../clib/printf.c                         0x00000000   Number         0  __printf_flags_wp.o ABSOLUTE
    ../clib/printf.c                         0x00000000   Number         0  __printf.o ABSOLUTE
    ../clib/printf.c                         0x00000000   Number         0  _printf_dec.o ABSOLUTE
    ../clib/printf.c                         0x00000000   Number         0  __2printf.o ABSOLUTE
    ../clib/printf.c                         0x00000000   Number         0  __2sprintf.o ABSOLUTE
    ../clib/printf.c                         0x00000000   Number         0  noretval__2printf.o ABSOLUTE
    ../clib/printf_percent.s                 0x00000000   Number         0  _printf_percent.o ABSOLUTE
    ../clib/printf_percent.s                 0x00000000   Number         0  _printf_percent_end.o ABSOLUTE
    ../clib/printf_percent.s                 0x00000000   Number         0  _printf_c.o ABSOLUTE
    ../clib/printf_percent.s                 0x00000000   Number         0  _printf_s.o ABSOLUTE
    ../clib/printf_percent.s                 0x00000000   Number         0  _printf_d.o ABSOLUTE
    ../clib/signal.c                         0x00000000   Number         0  __raise.o ABSOLUTE
    ../clib/signal.c                         0x00000000   Number         0  defsig_general.o ABSOLUTE
    ../clib/signal.c                         0x00000000   Number         0  defsig_fpe_outer.o ABSOLUTE
    ../clib/signal.c                         0x00000000   Number         0  defsig_fpe_formal.o ABSOLUTE
    ../clib/signal.c                         0x00000000   Number         0  defsig_rtred_inner.o ABSOLUTE
    ../clib/signal.c                         0x00000000   Number         0  defsig_rtmem_formal.o ABSOLUTE
    ../clib/signal.c                         0x00000000   Number         0  defsig_rtmem_outer.o ABSOLUTE
    ../clib/signal.c                         0x00000000   Number         0  defsig_rtred_formal.o ABSOLUTE
    ../clib/signal.c                         0x00000000   Number         0  defsig_rtred_outer.o ABSOLUTE
    ../clib/signal.c                         0x00000000   Number         0  defsig_abrt_inner.o ABSOLUTE
    ../clib/signal.c                         0x00000000   Number         0  defsig_rtmem_inner.o ABSOLUTE
    ../clib/signal.c                         0x00000000   Number         0  defsig_stak_inner.o ABSOLUTE
    ../clib/signal.c                         0x00000000   Number         0  defsig_fpe_inner.o ABSOLUTE
    ../clib/signal.c                         0x00000000   Number         0  defsig_pvfn_inner.o ABSOLUTE
    ../clib/signal.c                         0x00000000   Number         0  defsig_cppl_inner.o ABSOLUTE
    ../clib/signal.c                         0x00000000   Number         0  defsig_segv_inner.o ABSOLUTE
    ../clib/signal.c                         0x00000000   Number         0  defsig_other.o ABSOLUTE
    ../clib/signal.c                         0x00000000   Number         0  defsig_exit.o ABSOLUTE
    ../clib/signal.s                         0x00000000   Number         0  defsig.o ABSOLUTE
    ../clib/stdio.c                          0x00000000   Number         0  fflush_locked.o ABSOLUTE
    ../clib/stdio.c                          0x00000000   Number         0  fputs_locked.o ABSOLUTE
    ../clib/stdio.c                          0x00000000   Number         0  ftell.o ABSOLUTE
    ../clib/stdio.c                          0x00000000   Number         0  fputs.o ABSOLUTE
    ../clib/stdio.c                          0x00000000   Number         0  ferror_locked.o ABSOLUTE
    ../clib/stdio.c                          0x00000000   Number         0  fputc_locked.o ABSOLUTE
    ../clib/stdio.c                          0x00000000   Number         0  initio.o ABSOLUTE
    ../clib/stdio.c                          0x00000000   Number         0  fputc.o ABSOLUTE
    ../clib/stdio.c                          0x00000000   Number         0  ferror.o ABSOLUTE
    ../clib/stdio.c                          0x00000000   Number         0  fflush.o ABSOLUTE
    ../clib/stdio.c                          0x00000000   Number         0  fwritefast_locked.o ABSOLUTE
    ../clib/stdio.c                          0x00000000   Number         0  stdio.o ABSOLUTE
    ../clib/stdio.c                          0x00000000   Number         0  fseek.o ABSOLUTE
    ../clib/stdio.c                          0x00000000   Number         0  fwritefast.o ABSOLUTE
    ../clib/stdio.c                          0x00000000   Number         0  fopen_locked.o ABSOLUTE
    ../clib/stdio.c                          0x00000000   Number         0  setvbuf_locked.o ABSOLUTE
    ../clib/stdio.c                          0x00000000   Number         0  fclose.o ABSOLUTE
    ../clib/stdio.c                          0x00000000   Number         0  fopen.o ABSOLUTE
    ../clib/stdio.c                          0x00000000   Number         0  streamlock.o ABSOLUTE
    ../clib/stdio.c                          0x00000000   Number         0  setvbuf.o ABSOLUTE
    ../clib/stdio.c                          0x00000000   Number         0  flsbuf.o ABSOLUTE
    ../clib/stdio.c                          0x00000000   Number         0  initio_locked.o ABSOLUTE
    ../clib/stdio.c                          0x00000000   Number         0  stdio_streams.o ABSOLUTE
    ../clib/stdlib.c                         0x00000000   Number         0  exit.o ABSOLUTE
    ../clib/string.c                         0x00000000   Number         0  strcpy.o ABSOLUTE
    ../clib/string.c                         0x00000000   Number         0  strlen.o ABSOLUTE
    ../clib/string.c                         0x00000000   Number         0  strcat.o ABSOLUTE
    ../clib/wchar.c                          0x00000000   Number         0  flsbuf_fwide.o ABSOLUTE
    ../fplib/daddsub.s                       0x00000000   Number         0  daddsub_clz.o ABSOLUTE
    ../fplib/dcheck1.s                       0x00000000   Number         0  dcheck1.o ABSOLUTE
    ../fplib/dcmpi.s                         0x00000000   Number         0  dcmpi.o ABSOLUTE
    ../fplib/ddiv.s                          0x00000000   Number         0  ddiv.o ABSOLUTE
    ../fplib/dfix.s                          0x00000000   Number         0  dfix.o ABSOLUTE
    ../fplib/dfixu.s                         0x00000000   Number         0  dfixu.o ABSOLUTE
    ../fplib/dflt.s                          0x00000000   Number         0  dflt_clz.o ABSOLUTE
    ../fplib/dleqf.s                         0x00000000   Number         0  dleqf.o ABSOLUTE
    ../fplib/dmul.s                          0x00000000   Number         0  dmul.o ABSOLUTE
    ../fplib/dnaninf.s                       0x00000000   Number         0  dnaninf.o ABSOLUTE
    ../fplib/dretinf.s                       0x00000000   Number         0  dretinf.o ABSOLUTE
    ../fplib/drleqf.s                        0x00000000   Number         0  drleqf.o ABSOLUTE
    ../fplib/dsqrt.s                         0x00000000   Number         0  dsqrt_noumaal.o ABSOLUTE
    ../fplib/f2d.s                           0x00000000   Number         0  f2d.o ABSOLUTE
    ../fplib/faddsub.s                       0x00000000   Number         0  faddsub_clz.o ABSOLUTE
    ../fplib/fcmpi.s                         0x00000000   Number         0  fcmpi.o ABSOLUTE
    ../fplib/fdiv.s                          0x00000000   Number         0  fdiv.o ABSOLUTE
    ../fplib/feqf.s                          0x00000000   Number         0  feqf.o ABSOLUTE
    ../fplib/ffix.s                          0x00000000   Number         0  ffix.o ABSOLUTE
    ../fplib/ffixu.s                         0x00000000   Number         0  ffixu.o ABSOLUTE
    ../fplib/fflt.s                          0x00000000   Number         0  fflt_clz.o ABSOLUTE
    ../fplib/fleqf.s                         0x00000000   Number         0  fleqf.o ABSOLUTE
    ../fplib/fmul.s                          0x00000000   Number         0  fmul.o ABSOLUTE
    ../fplib/fnaninf.s                       0x00000000   Number         0  fnaninf.o ABSOLUTE
    ../fplib/fpinit.s                        0x00000000   Number         0  fpinit.o ABSOLUTE
    ../fplib/fretinf.s                       0x00000000   Number         0  fretinf.o ABSOLUTE
    ../fplib/frleqf.s                        0x00000000   Number         0  frleqf.o ABSOLUTE
    ../fplib/retnan.s                        0x00000000   Number         0  retnan.o ABSOLUTE
    ../fplib/scalbn.s                        0x00000000   Number         0  scalbn.o ABSOLUTE
    ../fplib/trapv.s                         0x00000000   Number         0  trapv.o ABSOLUTE
    ../fplib/usenofp.s                       0x00000000   Number         0  usenofp.o ABSOLUTE
    ../mathlib/dunder.c                      0x00000000   Number         0  dunder.o ABSOLUTE
    ../mathlib/fpclassify.c                  0x00000000   Number         0  fpclassify.o ABSOLUTE
    ../mathlib/poly.c                        0x00000000   Number         0  poly.o ABSOLUTE
    ../mathlib/pow.c                         0x00000000   Number         0  pow.o ABSOLUTE
    ../mathlib/pow.c                         0x00000000   Number         0  pow_x.o ABSOLUTE
    ../mathlib/qnan.c                        0x00000000   Number         0  qnan.o ABSOLUTE
    ../mathlib/sqrt.c                        0x00000000   Number         0  sqrt.o ABSOLUTE
    ../mathlib/sqrt.c                        0x00000000   Number         0  sqrt_x.o ABSOLUTE
    application\application_executer\script_hoster.c 0x00000000   Number         0  script_hoster.o ABSOLUTE
    application\application_executer\script_resolve.c 0x00000000   Number         0  script_resolve.o ABSOLUTE
    application\application_executer\script_syntax.c 0x00000000   Number         0  script_syntax.o ABSOLUTE
    application\application_local\alarm\alarm_ui.c 0x00000000   Number         0  alarm_ui.o ABSOLUTE
    application\application_local\telephone\telephone_ui.c 0x00000000   Number         0  telephone_ui.o ABSOLUTE
    application\system_desktop.c             0x00000000   Number         0  system_desktop.o ABSOLUTE
    application\system_desktop_application_execute.c 0x00000000   Number         0  system_desktop_application_execute.o ABSOLUTE
    application\system_desktop_ui.c          0x00000000   Number         0  system_desktop_ui.o ABSOLUTE
    dc.s                                     0x00000000   Number         0  dc.o ABSOLUTE
    hal\beep_api.c                           0x00000000   Number         0  beep_api.o ABSOLUTE
    hal\delay.c                              0x00000000   Number         0  delay.o ABSOLUTE
    hal\flash_device\flash_device_api.c      0x00000000   Number         0  flash_device_api.o ABSOLUTE
    hal\flash_inside_api.c                   0x00000000   Number         0  flash_inside_api.o ABSOLUTE
    hal\flash_outside_api.c                  0x00000000   Number         0  flash_outside_api.o ABSOLUTE
    hal\key_api.c                            0x00000000   Number         0  key_api.o ABSOLUTE
    hal\lcd_api.c                            0x00000000   Number         0  lcd_api.o ABSOLUTE
    hal\lcd_device\24cxx.c                   0x00000000   Number         0  24cxx.o ABSOLUTE
    hal\lcd_device\iic.c                     0x00000000   Number         0  iic.o ABSOLUTE
    hal\lcd_device\lcd_device_api.c          0x00000000   Number         0  lcd_device_api.o ABSOLUTE
    hal\lcd_device\lcd_device_touch.c        0x00000000   Number         0  lcd_device_touch.o ABSOLUTE
    hal\led_api.c                            0x00000000   Number         0  led_api.o ABSOLUTE
    hal\power_api.c                          0x00000000   Number         0  power_api.o ABSOLUTE
    hal\rtc_device\rtc_device_api.c          0x00000000   Number         0  rtc_device_api.o ABSOLUTE
    hal\sd_api.c                             0x00000000   Number         0  sd_api.o ABSOLUTE
    hal\sd_device\sdio_sdcard.c              0x00000000   Number         0  sdio_sdcard.o ABSOLUTE
    hal\sram_api.c                           0x00000000   Number         0  sram_api.o ABSOLUTE
    hal\sys.c                                0x00000000   Number         0  sys.o ABSOLUTE
    hal\system_interrupt.c                   0x00000000   Number         0  system_interrupt.o ABSOLUTE
    hal\system_main.c                        0x00000000   Number         0  system_main.o ABSOLUTE
    hal\time_api.c                           0x00000000   Number         0  time_api.o ABSOLUTE
    hal\uart_api.c                           0x00000000   Number         0  uart_api.o ABSOLUTE
    kernel\file_poor\fatfs\exfuns\exfuns.c   0x00000000   Number         0  exfuns.o ABSOLUTE
    kernel\file_poor\fatfs\exfuns\fattester.c 0x00000000   Number         0  fattester.o ABSOLUTE
    kernel\file_poor\fatfs\src\diskio.c      0x00000000   Number         0  diskio.o ABSOLUTE
    kernel\file_poor\fatfs\src\ff.c          0x00000000   Number         0  ff.o ABSOLUTE
    kernel\file_poor\fatfs\src\option\cc936.c 0x00000000   Number         0  cc936.o ABSOLUTE
    kernel\file_poor\file_operate.c          0x00000000   Number         0  file_operate.o ABSOLUTE
    kernel\graphics_library\graphics_background.c 0x00000000   Number         0  graphics_background.o ABSOLUTE
    kernel\graphics_library\graphics_bitmap.c 0x00000000   Number         0  graphics_bitmap.o ABSOLUTE
    kernel\graphics_library\graphics_font.c  0x00000000   Number         0  graphics_font.o ABSOLUTE
    kernel\graphics_library\graphics_widget.c 0x00000000   Number         0  graphics_widget.o ABSOLUTE
    kernel\graphics_library\graphics_window.c 0x00000000   Number         0  graphics_window.o ABSOLUTE
    kernel\kernel_expand\kernel_expand_gsm.c 0x00000000   Number         0  kernel_expand_gsm.o ABSOLUTE
    kernel\kernel_main.c                     0x00000000   Number         0  kernel_main.o ABSOLUTE
    kernel\kernel_notice.c                   0x00000000   Number         0  kernel_notice.o ABSOLUTE
    kernel\kernel_ui\kernel_ui_api.c         0x00000000   Number         0  kernel_ui_api.o ABSOLUTE
    kernel\memory_poor\malloc.c              0x00000000   Number         0  malloc.o ABSOLUTE
    kernel\thread_poor\thread_main.c         0x00000000   Number         0  thread_main.o ABSOLUTE
    libraries\CMSIS\CM3\CoreSupport\core_cm3.c 0x00000000   Number         0  core_cm3.o ABSOLUTE
    libraries\CMSIS\CM3\DeviceSupport\ST\STM32F10x\startup\arm\startup_stm32f10x_hd.s 0x00000000   Number         0  startup_stm32f10x_hd.o ABSOLUTE
    libraries\STM32F10x_StdPeriph_Driver\src\misc.c 0x00000000   Number         0  misc.o ABSOLUTE
    libraries\STM32F10x_StdPeriph_Driver\src\stm32f10x_bkp.c 0x00000000   Number         0  stm32f10x_bkp.o ABSOLUTE
    libraries\STM32F10x_StdPeriph_Driver\src\stm32f10x_exti.c 0x00000000   Number         0  stm32f10x_exti.o ABSOLUTE
    libraries\STM32F10x_StdPeriph_Driver\src\stm32f10x_flash.c 0x00000000   Number         0  stm32f10x_flash.o ABSOLUTE
    libraries\STM32F10x_StdPeriph_Driver\src\stm32f10x_fsmc.c 0x00000000   Number         0  stm32f10x_fsmc.o ABSOLUTE
    libraries\STM32F10x_StdPeriph_Driver\src\stm32f10x_gpio.c 0x00000000   Number         0  stm32f10x_gpio.o ABSOLUTE
    libraries\STM32F10x_StdPeriph_Driver\src\stm32f10x_pwr.c 0x00000000   Number         0  stm32f10x_pwr.o ABSOLUTE
    libraries\STM32F10x_StdPeriph_Driver\src\stm32f10x_rcc.c 0x00000000   Number         0  stm32f10x_rcc.o ABSOLUTE
    libraries\STM32F10x_StdPeriph_Driver\src\stm32f10x_rtc.c 0x00000000   Number         0  stm32f10x_rtc.o ABSOLUTE
    libraries\STM32F10x_StdPeriph_Driver\src\stm32f10x_spi.c 0x00000000   Number         0  stm32f10x_spi.o ABSOLUTE
    libraries\STM32F10x_StdPeriph_Driver\src\stm32f10x_usart.c 0x00000000   Number         0  stm32f10x_usart.o ABSOLUTE
    libraries\\CMSIS\\CM3\\CoreSupport\\core_cm3.c 0x00000000   Number         0  core_cm3.o ABSOLUTE
    libraries\stm32f10x_it.c                 0x00000000   Number         0  stm32f10x_it.o ABSOLUTE
    libraries\system_stm32f10x.c             0x00000000   Number         0  system_stm32f10x.o ABSOLUTE
    RESET                                    0x08000000   Section      304  startup_stm32f10x_hd.o(RESET)
    !!!main                                  0x08000130   Section        8  __main.o(!!!main)
    !!!scatter                               0x08000138   Section       52  __scatter.o(!!!scatter)
    !!dczerorl2                              0x0800016c   Section       90  __dczerorl2.o(!!dczerorl2)
    !!handler_zi                             0x080001c8   Section       28  __scatter_zi.o(!!handler_zi)
    .ARM.Collect$$_printf_percent$$00000000  0x080001e4   Section        0  _printf_percent.o(.ARM.Collect$$_printf_percent$$00000000)
    .ARM.Collect$$_printf_percent$$00000009  0x080001e4   Section        6  _printf_d.o(.ARM.Collect$$_printf_percent$$00000009)
    .ARM.Collect$$_printf_percent$$00000014  0x080001ea   Section        6  _printf_s.o(.ARM.Collect$$_printf_percent$$00000014)
    .ARM.Collect$$_printf_percent$$00000017  0x080001f0   Section        4  _printf_percent_end.o(.ARM.Collect$$_printf_percent$$00000017)
    .ARM.Collect$$libinit$$00000000          0x080001f4   Section        2  libinit.o(.ARM.Collect$$libinit$$00000000)
    .ARM.Collect$$libinit$$00000002          0x080001f6   Section        0  libinit2.o(.ARM.Collect$$libinit$$00000002)
    .ARM.Collect$$libinit$$00000003          0x080001f6   Section        8  libinit2.o(.ARM.Collect$$libinit$$00000003)
    .ARM.Collect$$libinit$$00000008          0x080001fe   Section        0  libinit2.o(.ARM.Collect$$libinit$$00000008)
    .ARM.Collect$$libinit$$0000000A          0x080001fe   Section        0  libinit2.o(.ARM.Collect$$libinit$$0000000A)
    .ARM.Collect$$libinit$$0000000C          0x080001fe   Section        0  libinit2.o(.ARM.Collect$$libinit$$0000000C)
    .ARM.Collect$$libinit$$0000000F          0x080001fe   Section        0  libinit2.o(.ARM.Collect$$libinit$$0000000F)
    .ARM.Collect$$libinit$$00000011          0x080001fe   Section        0  libinit2.o(.ARM.Collect$$libinit$$00000011)
    .ARM.Collect$$libinit$$00000013          0x080001fe   Section        0  libinit2.o(.ARM.Collect$$libinit$$00000013)
    .ARM.Collect$$libinit$$00000015          0x080001fe   Section        0  libinit2.o(.ARM.Collect$$libinit$$00000015)
    .ARM.Collect$$libinit$$00000017          0x080001fe   Section        0  libinit2.o(.ARM.Collect$$libinit$$00000017)
    .ARM.Collect$$libinit$$00000019          0x080001fe   Section        0  libinit2.o(.ARM.Collect$$libinit$$00000019)
    .ARM.Collect$$libinit$$0000001B          0x080001fe   Section        0  libinit2.o(.ARM.Collect$$libinit$$0000001B)
    .ARM.Collect$$libinit$$0000001D          0x080001fe   Section        0  libinit2.o(.ARM.Collect$$libinit$$0000001D)
    .ARM.Collect$$libinit$$0000001F          0x080001fe   Section        0  libinit2.o(.ARM.Collect$$libinit$$0000001F)
    .ARM.Collect$$libinit$$00000021          0x080001fe   Section        0  libinit2.o(.ARM.Collect$$libinit$$00000021)
    .ARM.Collect$$libinit$$00000023          0x080001fe   Section        0  libinit2.o(.ARM.Collect$$libinit$$00000023)
    .ARM.Collect$$libinit$$0000002A          0x080001fe   Section        0  libinit2.o(.ARM.Collect$$libinit$$0000002A)
    .ARM.Collect$$libinit$$0000002C          0x080001fe   Section        0  libinit2.o(.ARM.Collect$$libinit$$0000002C)
    .ARM.Collect$$libinit$$0000002E          0x080001fe   Section        0  libinit2.o(.ARM.Collect$$libinit$$0000002E)
    .ARM.Collect$$libinit$$00000030          0x080001fe   Section        0  libinit2.o(.ARM.Collect$$libinit$$00000030)
    .ARM.Collect$$libinit$$00000031          0x080001fe   Section        2  libinit2.o(.ARM.Collect$$libinit$$00000031)
    .ARM.Collect$$libshutdown$$00000000      0x08000200   Section        2  libshutdown.o(.ARM.Collect$$libshutdown$$00000000)
    .ARM.Collect$$libshutdown$$00000003      0x08000202   Section        0  libshutdown2.o(.ARM.Collect$$libshutdown$$00000003)
    .ARM.Collect$$libshutdown$$00000006      0x08000202   Section        0  libshutdown2.o(.ARM.Collect$$libshutdown$$00000006)
    .ARM.Collect$$libshutdown$$00000009      0x08000202   Section        0  libshutdown2.o(.ARM.Collect$$libshutdown$$00000009)
    .ARM.Collect$$libshutdown$$0000000B      0x08000202   Section        0  libshutdown2.o(.ARM.Collect$$libshutdown$$0000000B)
    .ARM.Collect$$libshutdown$$0000000E      0x08000202   Section        0  libshutdown2.o(.ARM.Collect$$libshutdown$$0000000E)
    .ARM.Collect$$libshutdown$$0000000F      0x08000202   Section        2  libshutdown2.o(.ARM.Collect$$libshutdown$$0000000F)
    .ARM.Collect$$rtentry$$00000000          0x08000204   Section        0  rtentry.o(.ARM.Collect$$rtentry$$00000000)
    .ARM.Collect$$rtentry$$00000002          0x08000204   Section        0  rtentry2.o(.ARM.Collect$$rtentry$$00000002)
    .ARM.Collect$$rtentry$$00000004          0x08000204   Section        6  rtentry4.o(.ARM.Collect$$rtentry$$00000004)
    .ARM.Collect$$rtentry$$00000009          0x0800020a   Section        0  rtentry2.o(.ARM.Collect$$rtentry$$00000009)
    .ARM.Collect$$rtentry$$0000000A          0x0800020a   Section        4  rtentry2.o(.ARM.Collect$$rtentry$$0000000A)
    .ARM.Collect$$rtentry$$0000000C          0x0800020e   Section        0  rtentry2.o(.ARM.Collect$$rtentry$$0000000C)
    .ARM.Collect$$rtentry$$0000000D          0x0800020e   Section        8  rtentry2.o(.ARM.Collect$$rtentry$$0000000D)
    .ARM.Collect$$rtexit$$00000000           0x08000216   Section        2  rtexit.o(.ARM.Collect$$rtexit$$00000000)
    .ARM.Collect$$rtexit$$00000002           0x08000218   Section        0  rtexit2.o(.ARM.Collect$$rtexit$$00000002)
    .ARM.Collect$$rtexit$$00000003           0x08000218   Section        4  rtexit2.o(.ARM.Collect$$rtexit$$00000003)
    .ARM.Collect$$rtexit$$00000004           0x0800021c   Section        6  rtexit2.o(.ARM.Collect$$rtexit$$00000004)
    .emb_text                                0x08000224   Section        0  maybetermalloc1.o(.emb_text)
    .text                                    0x08000224   Section       64  startup_stm32f10x_hd.o(.text)
    .text                                    0x08000264   Section        0  misc.o(.text)
    .text                                    0x08000340   Section        0  stm32f10x_flash.o(.text)
    .text                                    0x080008fc   Section        0  stm32f10x_fsmc.o(.text)
    .text                                    0x08000f14   Section        0  stm32f10x_gpio.o(.text)
    .text                                    0x0800126c   Section        0  stm32f10x_rcc.o(.text)
    .text                                    0x08001610   Section        0  stm32f10x_usart.o(.text)
    .text                                    0x08001a18   Section        0  stm32f10x_rtc.o(.text)
    .text                                    0x08001b5c   Section        0  stm32f10x_bkp.o(.text)
    .text                                    0x08001c20   Section        0  stm32f10x_pwr.o(.text)
    .text                                    0x08001cec   Section        0  stm32f10x_it.o(.text)
    .text                                    0x08001d98   Section        0  system_stm32f10x.o(.text)
    SetSysClockTo72                          0x08001d99   Thumb Code   212  system_stm32f10x.o(.text)
    SetSysClock                              0x08001e6d   Thumb Code     8  system_stm32f10x.o(.text)
    .text                                    0x08001f74   Section        0  system_main.o(.text)
    system_init                              0x08001f75   Thumb Code    52  system_main.o(.text)
    system_exit                              0x08001fa9   Thumb Code     8  system_main.o(.text)
    .text                                    0x08001fc4   Section        0  power_api.o(.text)
    .text                                    0x08001fd8   Section        0  led_api.o(.text)
    .text                                    0x08002060   Section        0  beep_api.o(.text)
    .text                                    0x080020ac   Section        0  key_api.o(.text)
    .text                                    0x08002154   Section        0  sram_api.o(.text)
    sram_port_init_3                         0x08002155   Thumb Code    98  sram_api.o(.text)
    sram_fsmc_init_3                         0x080021b7   Thumb Code    88  sram_api.o(.text)
    is_valid_address                         0x08002241   Thumb Code    20  sram_api.o(.text)
    .text                                    0x080022c8   Section        0  flash_inside_api.o(.text)
    is_valid_address                         0x080022c9   Thumb Code    22  flash_inside_api.o(.text)
    .text                                    0x080023cc   Section        0  flash_outside_api.o(.text)
    .text                                    0x08002420   Section        0  flash_device_api.o(.text)
    .text                                    0x080028a4   Section        0  sdio_sdcard.o(.text)
    .text                                    0x08004200   Section        0  uart_api.o(.text)
    .text                                    0x0800445c   Section        0  lcd_api.o(.text)
    lcd_touch_change_directon                0x0800445d   Thumb Code    22  lcd_api.o(.text)
    .text                                    0x08004920   Section        0  lcd_device_api.o(.text)
    .text                                    0x08006cc4   Section        0  lcd_device_touch.o(.text)
    .text                                    0x08007c9c   Section        0  time_api.o(.text)
    .text                                    0x08007fb8   Section        0  rtc_device_api.o(.text)
    RTC_NVIC_Config                          0x08007fc7   Thumb Code    32  rtc_device_api.o(.text)
    RTC_Init_Delay                           0x08007ff3   Thumb Code    14  rtc_device_api.o(.text)
    .text                                    0x080083dc   Section        0  delay.o(.text)
    .text                                    0x080084ac   Section        0  sys.o(.text)
    .text                                    0x08008558   Section        0  24cxx.o(.text)
    .text                                    0x080086cc   Section        0  iic.o(.text)
    .text                                    0x08008944   Section        0  kernel_notice.o(.text)
    .text                                    0x08008ad8   Section        0  kernel_ui_api.o(.text)
    .text                                    0x08008d24   Section        0  kernel_main.o(.text)
    .text                                    0x08008df0   Section        0  thread_main.o(.text)
    .text                                    0x08008e68   Section        0  malloc.o(.text)
    .text                                    0x08009098   Section        0  file_operate.o(.text)
    .text                                    0x080092e0   Section        0  ff.o(.text)
    mem_cpy                                  0x080092e1   Thumb Code    26  ff.o(.text)
    mem_set                                  0x080092fb   Thumb Code    20  ff.o(.text)
    mem_cmp                                  0x0800930f   Thumb Code    38  ff.o(.text)
    chk_chr                                  0x08009335   Thumb Code    20  ff.o(.text)
    move_window                              0x08009349   Thumb Code   114  ff.o(.text)
    sync                                     0x080093bb   Thumb Code   202  ff.o(.text)
    remove_chain                             0x080096bd   Thumb Code   104  ff.o(.text)
    create_chain                             0x08009725   Thumb Code   202  ff.o(.text)
    clmt_clust                               0x080097ef   Thumb Code    50  ff.o(.text)
    dir_next                                 0x080098bd   Thumb Code   276  ff.o(.text)
    ld_clust                                 0x080099d1   Thumb Code    32  ff.o(.text)
    st_clust                                 0x080099f1   Thumb Code    16  ff.o(.text)
    cmp_lfn                                  0x08009a01   Thumb Code   138  ff.o(.text)
    pick_lfn                                 0x08009a8b   Thumb Code   112  ff.o(.text)
    fit_lfn                                  0x08009afb   Thumb Code   122  ff.o(.text)
    sum_sfn                                  0x08009c33   Thumb Code    32  ff.o(.text)
    dir_find                                 0x08009c53   Thumb Code   222  ff.o(.text)
    dir_read                                 0x08009d31   Thumb Code   190  ff.o(.text)
    dir_register                             0x08009def   Thumb Code   402  ff.o(.text)
    dir_remove                               0x08009f81   Thumb Code    96  ff.o(.text)
    create_name                              0x08009fe1   Thumb Code   604  ff.o(.text)
    get_fileinfo                             0x0800a23d   Thumb Code   316  ff.o(.text)
    follow_path                              0x0800a379   Thumb Code   146  ff.o(.text)
    check_fs                                 0x0800a40b   Thumb Code   164  ff.o(.text)
    chk_mounted                              0x0800a4af   Thumb Code   906  ff.o(.text)
    validate                                 0x0800a839   Thumb Code    52  ff.o(.text)
    .text                                    0x0800c276   Section        0  diskio.o(.text)
    .text                                    0x0800c398   Section        0  cc936.o(.text)
    .text                                    0x0800c44c   Section        0  exfuns.o(.text)
    .text                                    0x0800c5dc   Section        0  graphics_background.o(.text)
    .text                                    0x0800c61e   Section        0  graphics_bitmap.o(.text)
    graphics_24bit_to_16bit                  0x0800c61f   Thumb Code    26  graphics_bitmap.o(.text)
    graphics_draw_bitmap_2                   0x0800c639   Thumb Code   400  graphics_bitmap.o(.text)
    graphics_draw_bitmap_4                   0x0800c7c9   Thumb Code   232  graphics_bitmap.o(.text)
    graphics_draw_bitmap_8                   0x0800c8b1   Thumb Code    74  graphics_bitmap.o(.text)
    graphics_draw_bitmap_16                  0x0800c8fb   Thumb Code     2  graphics_bitmap.o(.text)
    graphics_draw_bitmap_24                  0x0800c8fd   Thumb Code    82  graphics_bitmap.o(.text)
    .text                                    0x0800c9d4   Section        0  graphics_font.o(.text)
    .text                                    0x0800ca64   Section        0  graphics_widget.o(.text)
    draw_label                               0x0800cd03   Thumb Code   438  graphics_widget.o(.text)
    draw_button                              0x0800d06f   Thumb Code   396  graphics_widget.o(.text)
    draw_progress                            0x0800d30f   Thumb Code   356  graphics_widget.o(.text)
    draw_picture                             0x0800d5d7   Thumb Code    72  graphics_widget.o(.text)
    .text                                    0x0800da00   Section        0  graphics_window.o(.text)
    graphics_window_list_add                 0x0800da01   Thumb Code   356  graphics_window.o(.text)
    graphics_window_list_clean               0x0800db65   Thumb Code   302  graphics_window.o(.text)
    messagebox_ok_click_event                0x0800e7af   Thumb Code     8  graphics_window.o(.text)
    messagebox_cancel_click_event            0x0800e7b7   Thumb Code     8  graphics_window.o(.text)
    messagebox_notice_event                  0x0800e7bf   Thumb Code    24  graphics_window.o(.text)
    .text                                    0x0800eec0   Section        0  kernel_expand_gsm.o(.text)
    gsm_command                              0x0800eec1   Thumb Code    12  kernel_expand_gsm.o(.text)
    gsm_get_ring_number                      0x0800eedf   Thumb Code    10  kernel_expand_gsm.o(.text)
    .text                                    0x0800f014   Section        0  system_desktop.o(.text)
    .text                                    0x0800f0b8   Section        0  system_desktop_ui.o(.text)
    app_click0                               0x0800f0d3   Thumb Code     8  system_desktop_ui.o(.text)
    app_click1                               0x0800f0db   Thumb Code     8  system_desktop_ui.o(.text)
    app_click2                               0x0800f0e3   Thumb Code    12  system_desktop_ui.o(.text)
    app_click3                               0x0800f0ef   Thumb Code    14  system_desktop_ui.o(.text)
    system_desktop_fresh_app_local_list      0x0800f0fd   Thumb Code   126  system_desktop_ui.o(.text)
    .text                                    0x0800f698   Section        0  system_desktop_application_execute.o(.text)
    .text                                    0x0800f714   Section        0  script_hoster.o(.text)
    read_script_line                         0x0800f715   Thumb Code   146  script_hoster.o(.text)
    get_script_line                          0x0800f7a7   Thumb Code    30  script_hoster.o(.text)
    get_script_stack_size                    0x0800f7c5   Thumb Code   336  script_hoster.o(.text)
    is_valid_variables                       0x0800f915   Thumb Code   118  script_hoster.o(.text)
    read_stack_long                          0x0800f98b   Thumb Code    10  script_hoster.o(.text)
    read_stack_float                         0x0800f995   Thumb Code    10  script_hoster.o(.text)
    read_stack_char                          0x0800f99f   Thumb Code    10  script_hoster.o(.text)
    read_stack_string                        0x0800f9a9   Thumb Code    40  script_hoster.o(.text)
    write_stack_long                         0x0800f9d1   Thumb Code     8  script_hoster.o(.text)
    write_stack_float                        0x0800f9d9   Thumb Code     8  script_hoster.o(.text)
    write_stack_char                         0x0800f9e1   Thumb Code     8  script_hoster.o(.text)
    write_stack_string                       0x0800f9e9   Thumb Code    70  script_hoster.o(.text)
    calcu_term_result                        0x0800fa2f   Thumb Code  2222  script_hoster.o(.text)
    calcu_expression                         0x080102dd   Thumb Code  1384  script_hoster.o(.text)
    execute_call_funtion                     0x08010845   Thumb Code   788  script_hoster.o(.text)
    execute_script_line                      0x08010b59   Thumb Code  1026  script_hoster.o(.text)
    .text                                    0x080110a0   Section        0  script_resolve.o(.text)
    is_valid_function                        0x0801153d   Thumb Code   126  script_resolve.o(.text)
    .text                                    0x08011818   Section        0  script_syntax.o(.text)
    get_variables_type_size                  0x08011819   Thumb Code    86  script_syntax.o(.text)
    .text                                    0x08012360   Section        0  telephone_ui.o(.text)
    number_button_1_click                    0x08012361   Thumb Code    36  telephone_ui.o(.text)
    number_button_2_click                    0x08012385   Thumb Code    36  telephone_ui.o(.text)
    number_button_3_click                    0x080123a9   Thumb Code    36  telephone_ui.o(.text)
    number_button_4_click                    0x080123cd   Thumb Code    36  telephone_ui.o(.text)
    number_button_5_click                    0x080123f1   Thumb Code    36  telephone_ui.o(.text)
    number_button_6_click                    0x08012415   Thumb Code    36  telephone_ui.o(.text)
    number_button_7_click                    0x08012439   Thumb Code    36  telephone_ui.o(.text)
    number_button_8_click                    0x0801245d   Thumb Code    36  telephone_ui.o(.text)
    number_button_9_click                    0x08012481   Thumb Code    36  telephone_ui.o(.text)
    number_button_0_click                    0x080124a5   Thumb Code    36  telephone_ui.o(.text)
    telephone_dial_button_hang_click         0x080124c9   Thumb Code    24  telephone_ui.o(.text)
    telephone_dial_button_ring_click         0x080124e1   Thumb Code    32  telephone_ui.o(.text)
    telephone_dial_exit                      0x08012501   Thumb Code     2  telephone_ui.o(.text)
    telephone_dial_window_notice_recall      0x08012503   Thumb Code    42  telephone_ui.o(.text)
    call_button_click                        0x08012649   Thumb Code    46  telephone_ui.o(.text)
    back_button_click                        0x08012677   Thumb Code    40  telephone_ui.o(.text)
    telephone_exit                           0x0801269f   Thumb Code     2  telephone_ui.o(.text)
    telephone_main_window_notice_recall      0x080126a1   Thumb Code    46  telephone_ui.o(.text)
    .text                                    0x08012ae0   Section        0  alarm_ui.o(.text)
    alarm_select_caption_refresh             0x08012ae1   Thumb Code    40  alarm_ui.o(.text)
    alarm_select_up_button                   0x08012b09   Thumb Code    62  alarm_ui.o(.text)
    alarm_select_down_button                 0x08012b47   Thumb Code    66  alarm_ui.o(.text)
    alarm_refresh_alarm_list                 0x08012b89   Thumb Code   152  alarm_ui.o(.text)
    alarm_cancel_button_click                0x08012c21   Thumb Code    12  alarm_ui.o(.text)
    alarm_notice_exit                        0x08012c2d   Thumb Code    24  alarm_ui.o(.text)
    alarm_notice_window_notice_recall        0x08012c45   Thumb Code    16  alarm_ui.o(.text)
    alarm_ok_button_click                    0x08012cdd   Thumb Code   184  alarm_ui.o(.text)
    alarm_min_sub_button_click               0x08012d95   Thumb Code    60  alarm_ui.o(.text)
    alarm_min_add_button_click               0x08012dd1   Thumb Code    62  alarm_ui.o(.text)
    alarm_hour_sub_button_click              0x08012e0f   Thumb Code    60  alarm_ui.o(.text)
    alarm_hour_add_button_click              0x08012e4b   Thumb Code    62  alarm_ui.o(.text)
    alarm_select_button_all_unselect         0x08012e89   Thumb Code    38  alarm_ui.o(.text)
    alarm_select_button_7_click              0x08012eaf   Thumb Code   214  alarm_ui.o(.text)
    alarm_select_button_6_click              0x08012f85   Thumb Code    30  alarm_ui.o(.text)
    alarm_select_button_5_click              0x08012fa3   Thumb Code    30  alarm_ui.o(.text)
    alarm_select_button_4_click              0x08012fc1   Thumb Code    30  alarm_ui.o(.text)
    alarm_select_button_3_click              0x08012fdf   Thumb Code    30  alarm_ui.o(.text)
    alarm_select_button_2_click              0x08012ffd   Thumb Code    30  alarm_ui.o(.text)
    alarm_select_button_1_click              0x0801301b   Thumb Code    30  alarm_ui.o(.text)
    alarm_setting_window_notice_recall       0x08013039   Thumb Code    84  alarm_ui.o(.text)
    alarm_setting_window_init                0x0801308d   Thumb Code  1134  alarm_ui.o(.text)
    alarm_setting_button                     0x080134fb   Thumb Code    70  alarm_ui.o(.text)
    alarm_delete_button                      0x08013541   Thumb Code   126  alarm_ui.o(.text)
    alarm_main_window_notice_recall          0x080135c1   Thumb Code    42  alarm_ui.o(.text)
    .text                                    0x080137f0   Section        0  h1_alloc.o(.text)
    .text                                    0x0801384e   Section        0  h1_free.o(.text)
    .text                                    0x0801389c   Section       72  llsdiv.o(.text)
    .text                                    0x080138e4   Section        0  noretval__2sprintf.o(.text)
    .text                                    0x0801390c   Section        0  _printf_pad.o(.text)
    .text                                    0x0801395e   Section        0  _printf_str.o(.text)
    .text                                    0x080139b0   Section        0  _printf_dec.o(.text)
    .text                                    0x08013a28   Section        0  __printf_flags_ss_wp.o(.text)
    .text                                    0x08013bb4   Section        0  strcpy.o(.text)
    .text                                    0x08013bfc   Section        0  strlen.o(.text)
    .text                                    0x08013c3a   Section        0  strcat.o(.text)
    .text                                    0x08013c52   Section      138  rt_memcpy_v6.o(.text)
    .text                                    0x08013cdc   Section      100  rt_memcpy_w.o(.text)
    .text                                    0x08013d40   Section       16  aeabi_memset.o(.text)
    .text                                    0x08013d50   Section       68  rt_memclr.o(.text)
    .text                                    0x08013d94   Section       78  rt_memclr_w.o(.text)
    .text                                    0x08013de4   Section      128  strcmpv7m.o(.text)
    .text                                    0x08013e64   Section        0  heapauxi.o(.text)
    .text                                    0x08013e6c   Section        8  rt_heap_descriptor_intlibspace.o(.text)
    .text                                    0x08013e74   Section        0  hguard.o(.text)
    .text                                    0x08013e78   Section        0  init_alloc.o(.text)
    .text                                    0x08013f02   Section        0  h1_init.o(.text)
    .text                                    0x08013f10   Section      238  lludivv7m.o(.text)
    .text                                    0x08013ffe   Section        0  _rserrno.o(.text)
    .text                                    0x08014014   Section        0  _printf_intcommon.o(.text)
    .text                                    0x080140cc   Section        0  _printf_char_common.o(.text)
    _printf_input_char                       0x080140cd   Thumb Code    10  _printf_char_common.o(.text)
    .text                                    0x080140fc   Section        0  _sputc.o(.text)
    .text                                    0x08014106   Section        0  _printf_char.o(.text)
    .text                                    0x08014134   Section        8  libspace.o(.text)
    .text                                    0x0801413c   Section        8  rt_errno_addr_intlibspace.o(.text)
    .text                                    0x08014144   Section        0  h1_extend.o(.text)
    .text                                    0x08014178   Section        0  defsig_rtmem_outer.o(.text)
    .text                                    0x08014186   Section        2  use_no_semi.o(.text)
    .text                                    0x08014188   Section        0  indicate_semi.o(.text)
    .text                                    0x08014188   Section       74  sys_stackheap_outer.o(.text)
    .text                                    0x080141d2   Section        0  exit.o(.text)
    .text                                    0x080141de   Section        0  defsig_exit.o(.text)
    .text                                    0x080141e8   Section        0  defsig_rtmem_inner.o(.text)
    .text                                    0x08014238   Section        0  sys_exit.o(.text)
    .text                                    0x08014244   Section        0  defsig_general.o(.text)
    .text                                    0x08014276   Section        0  sys_wrch.o(.text)
    i.__ARM_fpclassify                       0x08014284   Section        0  fpclassify.o(i.__ARM_fpclassify)
    i.__kernel_poly                          0x080142ac   Section        0  poly.o(i.__kernel_poly)
    i.__mathlib_dbl_underflow                0x08014358   Section        0  dunder.o(i.__mathlib_dbl_underflow)
    i._is_digit                              0x08014368   Section        0  __printf_wp.o(i._is_digit)
    i.pow                                    0x08014378   Section        0  pow.o(i.pow)
    i.sqrt                                   0x08014d58   Section        0  sqrt.o(i.sqrt)
    x$fpl$dadd                               0x08014da4   Section      336  daddsub_clz.o(x$fpl$dadd)
    _dadd1                                   0x08014db5   Thumb Code     0  daddsub_clz.o(x$fpl$dadd)
    x$fpl$dcheck1                            0x08014ef4   Section       16  dcheck1.o(x$fpl$dcheck1)
    x$fpl$dcmpinf                            0x08014f04   Section       24  dcmpi.o(x$fpl$dcmpinf)
    x$fpl$ddiv                               0x08014f1c   Section      688  ddiv.o(x$fpl$ddiv)
    ddiv_entry                               0x08014f23   Thumb Code     0  ddiv.o(x$fpl$ddiv)
    x$fpl$dfix                               0x080151cc   Section       94  dfix.o(x$fpl$dfix)
    x$fpl$dfixu                              0x0801522c   Section       90  dfixu.o(x$fpl$dfixu)
    x$fpl$dflt                               0x08015286   Section       46  dflt_clz.o(x$fpl$dflt)
    x$fpl$dfltu                              0x080152b4   Section       38  dflt_clz.o(x$fpl$dfltu)
    x$fpl$dleqf                              0x080152dc   Section      120  dleqf.o(x$fpl$dleqf)
    x$fpl$dmul                               0x08015354   Section      340  dmul.o(x$fpl$dmul)
    x$fpl$dnaninf                            0x080154a8   Section      156  dnaninf.o(x$fpl$dnaninf)
    x$fpl$dretinf                            0x08015544   Section       12  dretinf.o(x$fpl$dretinf)
    x$fpl$drleqf                             0x08015550   Section      108  drleqf.o(x$fpl$drleqf)
    x$fpl$drsb                               0x080155bc   Section       22  daddsub_clz.o(x$fpl$drsb)
    x$fpl$dsqrt                              0x080155d4   Section      460  dsqrt_noumaal.o(x$fpl$dsqrt)
    x$fpl$dsub                               0x080157a0   Section      468  daddsub_clz.o(x$fpl$dsub)
    _dsub1                                   0x080157b1   Thumb Code     0  daddsub_clz.o(x$fpl$dsub)
    x$fpl$f2d                                0x08015974   Section       86  f2d.o(x$fpl$f2d)
    x$fpl$fadd                               0x080159cc   Section      196  faddsub_clz.o(x$fpl$fadd)
    _fadd1                                   0x080159db   Thumb Code     0  faddsub_clz.o(x$fpl$fadd)
    x$fpl$fcmpinf                            0x08015a90   Section       24  fcmpi.o(x$fpl$fcmpinf)
    x$fpl$fdiv                               0x08015aa8   Section      388  fdiv.o(x$fpl$fdiv)
    _fdiv1                                   0x08015aa9   Thumb Code     0  fdiv.o(x$fpl$fdiv)
    x$fpl$feqf                               0x08015c2c   Section      104  feqf.o(x$fpl$feqf)
    x$fpl$ffix                               0x08015c94   Section       54  ffix.o(x$fpl$ffix)
    x$fpl$ffixu                              0x08015ccc   Section       62  ffixu.o(x$fpl$ffixu)
    x$fpl$fflt                               0x08015d0c   Section       48  fflt_clz.o(x$fpl$fflt)
    x$fpl$ffltu                              0x08015d3c   Section       38  fflt_clz.o(x$fpl$ffltu)
    x$fpl$fleqf                              0x08015d64   Section      104  fleqf.o(x$fpl$fleqf)
    x$fpl$fmul                               0x08015dcc   Section      258  fmul.o(x$fpl$fmul)
    x$fpl$fnaninf                            0x08015ece   Section      140  fnaninf.o(x$fpl$fnaninf)
    x$fpl$fretinf                            0x08015f5a   Section       10  fretinf.o(x$fpl$fretinf)
    x$fpl$frleqf                             0x08015f64   Section       98  frleqf.o(x$fpl$frleqf)
    x$fpl$fsub                               0x08015fc8   Section      234  faddsub_clz.o(x$fpl$fsub)
    _fsub1                                   0x08015fd7   Thumb Code     0  faddsub_clz.o(x$fpl$fsub)
    x$fpl$retnan                             0x080160b2   Section      100  retnan.o(x$fpl$retnan)
    x$fpl$scalbn                             0x08016116   Section       92  scalbn.o(x$fpl$scalbn)
    x$fpl$trapveneer                         0x08016172   Section       48  trapv.o(x$fpl$trapveneer)
    x$fpl$usenofp                            0x080161a2   Section        0  usenofp.o(x$fpl$usenofp)
    .constdata                               0x080161a4   Section       84  stm32f10x_it.o(.constdata)
    .constdata                               0x080161f8   Section     2660  lcd_device_api.o(.constdata)
    .constdata                               0x08016c5c   Section       24  rtc_device_api.o(.constdata)
    .constdata                               0x08016c74   Section    30054  kernel_ui_api.o(.constdata)
    .constdata                               0x0801e1dc   Section      121  kernel_main.o(.constdata)
    .constdata                               0x0801e258   Section       24  malloc.o(.constdata)
    .constdata                               0x0801e270   Section       58  ff.o(.constdata)
    LfnOfs                                   0x0801e270   Data          13  ff.o(.constdata)
    vst                                      0x0801e27e   Data          22  ff.o(.constdata)
    cst                                      0x0801e294   Data          22  ff.o(.constdata)
    .constdata                               0x0801e2aa   Section    175304  cc936.o(.constdata)
    uni2oem                                  0x0801e2aa   Data       87172  cc936.o(.constdata)
    oem2uni                                  0x0803372e   Data       87172  cc936.o(.constdata)
    tbl_lower                                0x08048bb2   Data         480  cc936.o(.constdata)
    tbl_upper                                0x08048d92   Data         480  cc936.o(.constdata)
    .constdata                               0x08048f72   Section     4854  graphics_window.o(.constdata)
    messagebox_warning_flag                  0x08048f72   Data        4854  graphics_window.o(.constdata)
    .constdata                               0x0804a268   Section    60110  system_desktop_ui.o(.constdata)
    .constdata                               0x08058d36   Section       17  __printf_flags_ss_wp.o(.constdata)
    maptable                                 0x08058d36   Data          17  __printf_flags_ss_wp.o(.constdata)
    .constdata                               0x08058d48   Section      136  pow.o(.constdata)
    bp                                       0x08058d48   Data          16  pow.o(.constdata)
    dp_h                                     0x08058d58   Data          16  pow.o(.constdata)
    dp_l                                     0x08058d68   Data          16  pow.o(.constdata)
    L                                        0x08058d78   Data          48  pow.o(.constdata)
    P                                        0x08058da8   Data          40  pow.o(.constdata)
    .constdata                               0x08058dd0   Section        8  qnan.o(.constdata)
    .conststring                             0x08058dd8   Section      121  lcd_device_touch.o(.conststring)
    .conststring                             0x08058e51   Section       88  exfuns.o(.conststring)
    .data                                    0x20000000   Section       20  stm32f10x_rcc.o(.data)
    APBAHBPrescTable                         0x20000000   Data          16  stm32f10x_rcc.o(.data)
    ADCPrescTable                            0x20000010   Data           4  stm32f10x_rcc.o(.data)
    .data                                    0x20000014   Section       20  system_stm32f10x.o(.data)
    .data                                    0x20000028   Section        1  power_api.o(.data)
    .data                                    0x2000002c   Section        4  flash_device_api.o(.data)
    .data                                    0x20000030   Section       12  sdio_sdcard.o(.data)
    CardType                                 0x20000030   Data           1  sdio_sdcard.o(.data)
    RCA                                      0x20000034   Data           4  sdio_sdcard.o(.data)
    DeviceMode                               0x20000038   Data           1  sdio_sdcard.o(.data)
    StopCondition                            0x20000039   Data           1  sdio_sdcard.o(.data)
    .data                                    0x2000003c   Section        4  uart_api.o(.data)
    .data                                    0x20000040   Section      836  lcd_api.o(.data)
    lcd_diplay_state                         0x20000040   Data           1  lcd_api.o(.data)
    screen_direction_flag                    0x20000041   Data           1  lcd_api.o(.data)
    background_color_code                    0x20000044   Data           4  lcd_api.o(.data)
    font_color_code                          0x20000048   Data           4  lcd_api.o(.data)
    print_buffer                             0x2000004c   Data         820  lcd_api.o(.data)
    print_current_line                       0x20000380   Data           4  lcd_api.o(.data)
    .data                                    0x20000384   Section        4  lcd_device_api.o(.data)
    .data                                    0x20000388   Section       48  lcd_device_touch.o(.data)
    .data                                    0x200003b8   Section        6  rtc_device_api.o(.data)
    wait_time                                0x200003b8   Data           4  rtc_device_api.o(.data)
    daycnt                                   0x200003bc   Data           2  rtc_device_api.o(.data)
    .data                                    0x200003be   Section        4  delay.o(.data)
    fac_us                                   0x200003be   Data           1  delay.o(.data)
    fac_ms                                   0x200003c0   Data           2  delay.o(.data)
    .data                                    0x200003c4   Section       12  kernel_ui_api.o(.data)
    .data                                    0x200003d0   Section        1  thread_main.o(.data)
    .data                                    0x200003d4   Section       28  malloc.o(.data)
    .data                                    0x200003f0   Section       10  ff.o(.data)
    FatFs                                    0x200003f0   Data           8  ff.o(.data)
    Fsid                                     0x200003f8   Data           2  ff.o(.data)
    .data                                    0x200003fc   Section      340  exfuns.o(.data)
    .data                                    0x20000550   Section       32  graphics_window.o(.data)
    .data                                    0x20000570   Section        4  system_desktop.o(.data)
    .data                                    0x20000574   Section        4  system_desktop_ui.o(.data)
    .data                                    0x20000578   Section       24  script_hoster.o(.data)
    .data                                    0x20000590   Section       16  telephone_ui.o(.data)
    .data                                    0x200005a0   Section       72  alarm_ui.o(.data)
    alarm_main_window                        0x200005a0   Data           4  alarm_ui.o(.data)
    alarm_label_handle_list                  0x200005a4   Data           8  alarm_ui.o(.data)
    alarm_list_detail_label                  0x200005ac   Data           4  alarm_ui.o(.data)
    alarm_select_list_line                   0x200005b0   Data           1  alarm_ui.o(.data)
    alarm_setting_window_handle              0x200005b4   Data           4  alarm_ui.o(.data)
    select_week                              0x200005b8   Data           1  alarm_ui.o(.data)
    select_button_handle                     0x200005bc   Data          28  alarm_ui.o(.data)
    setting_hour_handle                      0x200005d8   Data           4  alarm_ui.o(.data)
    setting_min_handle                       0x200005dc   Data           4  alarm_ui.o(.data)
    setting_hour                             0x200005e0   Data           1  alarm_ui.o(.data)
    setting_min                              0x200005e1   Data           1  alarm_ui.o(.data)
    setting_alarm_list_index                 0x200005e2   Data           1  alarm_ui.o(.data)
    alarm_setting_state                      0x200005e3   Data           1  alarm_ui.o(.data)
    alarm_notice_window_handle               0x200005e4   Data           4  alarm_ui.o(.data)
    .bss                                     0x200005e8   Section       24  sram_api.o(.bss)
    sram_hardware_information                0x200005e8   Data          24  sram_api.o(.bss)
    .bss                                     0x20000600   Section     4096  flash_device_api.o(.bss)
    .bss                                     0x20001600   Section      632  sdio_sdcard.o(.bss)
    CSD_Tab                                  0x20001600   Data          16  sdio_sdcard.o(.bss)
    CID_Tab                                  0x20001610   Data          16  sdio_sdcard.o(.bss)
    .bss                                     0x20001878   Section      256  uart_api.o(.bss)
    .bss                                     0x20001978   Section       10  lcd_device_api.o(.bss)
    .bss                                     0x20001984   Section       64  time_api.o(.bss)
    .bss                                     0x200019c4   Section       10  rtc_device_api.o(.bss)
    .bss                                     0x200019d0   Section      164  kernel_notice.o(.bss)
    kernel_notice_data                       0x200019d0   Data         164  kernel_notice.o(.bss)
    .bss                                     0x20001a74   Section    43520  malloc.o(.bss)
    .bss                                     0x2000c474   Section     4884  graphics_window.o(.bss)
    .bss                                     0x2000d788   Section       20  kernel_expand_gsm.o(.bss)
    .bss                                     0x2000d79c   Section      176  system_desktop_ui.o(.bss)
    .bss                                     0x2000d84c   Section     2052  script_hoster.o(.bss)
    .bss                                     0x2000e050   Section       20  telephone_ui.o(.bss)
    .bss                                     0x2000e064   Section       18  alarm_ui.o(.bss)
    alarm_list                               0x2000e064   Data          18  alarm_ui.o(.bss)
    .bss                                     0x2000e078   Section       96  libspace.o(.bss)
    HEAP                                     0x2000e0d8   Section      512  startup_stm32f10x_hd.o(HEAP)
    Heap_Mem                                 0x2000e0d8   Data         512  startup_stm32f10x_hd.o(HEAP)
    STACK                                    0x2000e2d8   Section     1024  startup_stm32f10x_hd.o(STACK)
    Stack_Mem                                0x2000e2d8   Data        1024  startup_stm32f10x_hd.o(STACK)
    __initial_sp                             0x2000e6d8   Data           0  startup_stm32f10x_hd.o(STACK)
    .ARM.__AT_0x68000000                     0x68000000   Section    204800  malloc.o(.ARM.__AT_0x68000000)
    .ARM.__AT_0x68032000                     0x68032000   Section    12800  malloc.o(.ARM.__AT_0x68032000)

    Global Symbols

    Symbol Name                              Value     Ov Type        Size  Object(Section)

    BuildAttributes$$THM_ISAv4$P$D$K$B$S$PE$A:L22UL41UL21$X:L11$S22US41US21$IEEE1$IW$USESV6$~STKCKD$USESV7$~SHL$OTIME$ROPI$IEEEX$EBA8$UX$STANDARDLIB$REQ8$PRES8$EABIv2 0x00000000   Number         0  anon$$obj.o ABSOLUTE
    __ARM_use_no_argv                        0x00000000   Number         0  system_main.o ABSOLUTE
    _printf_flags                            0x00000000   Number         0  printf_stubs.o ABSOLUTE
    _printf_return_value                     0x00000000   Number         0  printf_stubs.o ABSOLUTE
    _printf_sizespec                         0x00000000   Number         0  printf_stubs.o ABSOLUTE
    _printf_widthprec                        0x00000000   Number         0  printf_stubs.o ABSOLUTE
    __ARM_exceptions_init                     - Undefined Weak Reference
    __alloca_initialize                       - Undefined Weak Reference
    __cpp_initialize__aeabi_                  - Undefined Weak Reference
    __cxa_finalize                            - Undefined Weak Reference
    __rt_locale                               - Undefined Weak Reference
    __sigvec_lookup                           - Undefined Weak Reference
    __user_heap_extent                        - Undefined Weak Reference
    _atexit_init                              - Undefined Weak Reference
    _call_atexit_fns                          - Undefined Weak Reference
    _clock_init                               - Undefined Weak Reference
    _fp_trap_init                             - Undefined Weak Reference
    _fp_trap_shutdown                         - Undefined Weak Reference
    _get_lc_collate                           - Undefined Weak Reference
    _get_lc_ctype                             - Undefined Weak Reference
    _get_lc_monetary                          - Undefined Weak Reference
    _get_lc_numeric                           - Undefined Weak Reference
    _get_lc_time                              - Undefined Weak Reference
    _getenv_init                              - Undefined Weak Reference
    _handle_redirection                       - Undefined Weak Reference
    _mutex_acquire                            - Undefined Weak Reference
    _mutex_free                               - Undefined Weak Reference
    _mutex_release                            - Undefined Weak Reference
    _printf_mbtowc                            - Undefined Weak Reference
    _printf_truncate_signed                   - Undefined Weak Reference
    _printf_truncate_unsigned                 - Undefined Weak Reference
    _rand_init                                - Undefined Weak Reference
    _signal_finish                            - Undefined Weak Reference
    _signal_init                              - Undefined Weak Reference
    __Vectors_Size                           0x00000130   Number         0  startup_stm32f10x_hd.o ABSOLUTE
    __Vectors                                0x08000000   Data           4  startup_stm32f10x_hd.o(RESET)
    __Vectors_End                            0x08000130   Data           0  startup_stm32f10x_hd.o(RESET)
    __main                                   0x08000131   Thumb Code     8  __main.o(!!!main)
    __scatterload                            0x08000139   Thumb Code     0  __scatter.o(!!!scatter)
    __scatterload_rt2                        0x08000139   Thumb Code    44  __scatter.o(!!!scatter)
    __scatterload_rt2_thumb_only             0x08000139   Thumb Code     0  __scatter.o(!!!scatter)
    __scatterload_null                       0x08000147   Thumb Code     0  __scatter.o(!!!scatter)
    __decompress                             0x0800016d   Thumb Code    90  __dczerorl2.o(!!dczerorl2)
    __decompress1                            0x0800016d   Thumb Code     0  __dczerorl2.o(!!dczerorl2)
    __scatterload_zeroinit                   0x080001c9   Thumb Code    28  __scatter_zi.o(!!handler_zi)
    _printf_d                                0x080001e5   Thumb Code     0  _printf_d.o(.ARM.Collect$$_printf_percent$$00000009)
    _printf_percent                          0x080001e5   Thumb Code     0  _printf_percent.o(.ARM.Collect$$_printf_percent$$00000000)
    _printf_s                                0x080001eb   Thumb Code     0  _printf_s.o(.ARM.Collect$$_printf_percent$$00000014)
    _printf_percent_end                      0x080001f1   Thumb Code     0  _printf_percent_end.o(.ARM.Collect$$_printf_percent$$00000017)
    __rt_lib_init                            0x080001f5   Thumb Code     0  libinit.o(.ARM.Collect$$libinit$$00000000)
    __rt_lib_init_fp_1                       0x080001f7   Thumb Code     0  libinit2.o(.ARM.Collect$$libinit$$00000002)
    __rt_lib_init_heap_2                     0x080001f7   Thumb Code     0  libinit2.o(.ARM.Collect$$libinit$$00000003)
    __rt_lib_init_alloca_1                   0x080001ff   Thumb Code     0  libinit2.o(.ARM.Collect$$libinit$$0000002C)
    __rt_lib_init_argv_1                     0x080001ff   Thumb Code     0  libinit2.o(.ARM.Collect$$libinit$$0000002A)
    __rt_lib_init_atexit_1                   0x080001ff   Thumb Code     0  libinit2.o(.ARM.Collect$$libinit$$00000019)
    __rt_lib_init_clock_1                    0x080001ff   Thumb Code     0  libinit2.o(.ARM.Collect$$libinit$$0000001F)
    __rt_lib_init_cpp_1                      0x080001ff   Thumb Code     0  libinit2.o(.ARM.Collect$$libinit$$00000030)
    __rt_lib_init_exceptions_1               0x080001ff   Thumb Code     0  libinit2.o(.ARM.Collect$$libinit$$0000002E)
    __rt_lib_init_fp_trap_1                  0x080001ff   Thumb Code     0  libinit2.o(.ARM.Collect$$libinit$$0000001D)
    __rt_lib_init_getenv_1                   0x080001ff   Thumb Code     0  libinit2.o(.ARM.Collect$$libinit$$00000021)
    __rt_lib_init_heap_1                     0x080001ff   Thumb Code     0  libinit2.o(.ARM.Collect$$libinit$$00000008)
    __rt_lib_init_lc_collate_1               0x080001ff   Thumb Code     0  libinit2.o(.ARM.Collect$$libinit$$0000000F)
    __rt_lib_init_lc_ctype_1                 0x080001ff   Thumb Code     0  libinit2.o(.ARM.Collect$$libinit$$00000011)
    __rt_lib_init_lc_monetary_1              0x080001ff   Thumb Code     0  libinit2.o(.ARM.Collect$$libinit$$00000013)
    __rt_lib_init_lc_numeric_1               0x080001ff   Thumb Code     0  libinit2.o(.ARM.Collect$$libinit$$00000015)
    __rt_lib_init_lc_time_1                  0x080001ff   Thumb Code     0  libinit2.o(.ARM.Collect$$libinit$$00000017)
    __rt_lib_init_rand_1                     0x080001ff   Thumb Code     0  libinit2.o(.ARM.Collect$$libinit$$0000000C)
    __rt_lib_init_return                     0x080001ff   Thumb Code     0  libinit2.o(.ARM.Collect$$libinit$$00000031)
    __rt_lib_init_signal_1                   0x080001ff   Thumb Code     0  libinit2.o(.ARM.Collect$$libinit$$0000001B)
    __rt_lib_init_stdio_1                    0x080001ff   Thumb Code     0  libinit2.o(.ARM.Collect$$libinit$$00000023)
    __rt_lib_init_user_alloc_1               0x080001ff   Thumb Code     0  libinit2.o(.ARM.Collect$$libinit$$0000000A)
    __rt_lib_shutdown                        0x08000201   Thumb Code     0  libshutdown.o(.ARM.Collect$$libshutdown$$00000000)
    __rt_lib_shutdown_fp_trap_1              0x08000203   Thumb Code     0  libshutdown2.o(.ARM.Collect$$libshutdown$$00000006)
    __rt_lib_shutdown_heap_1                 0x08000203   Thumb Code     0  libshutdown2.o(.ARM.Collect$$libshutdown$$0000000E)
    __rt_lib_shutdown_return                 0x08000203   Thumb Code     0  libshutdown2.o(.ARM.Collect$$libshutdown$$0000000F)
    __rt_lib_shutdown_signal_1               0x08000203   Thumb Code     0  libshutdown2.o(.ARM.Collect$$libshutdown$$00000009)
    __rt_lib_shutdown_stdio_1                0x08000203   Thumb Code     0  libshutdown2.o(.ARM.Collect$$libshutdown$$00000003)
    __rt_lib_shutdown_user_alloc_1           0x08000203   Thumb Code     0  libshutdown2.o(.ARM.Collect$$libshutdown$$0000000B)
    __rt_entry                               0x08000205   Thumb Code     0  rtentry.o(.ARM.Collect$$rtentry$$00000000)
    __rt_entry_presh_1                       0x08000205   Thumb Code     0  rtentry2.o(.ARM.Collect$$rtentry$$00000002)
    __rt_entry_sh                            0x08000205   Thumb Code     0  rtentry4.o(.ARM.Collect$$rtentry$$00000004)
    __rt_entry_li                            0x0800020b   Thumb Code     0  rtentry2.o(.ARM.Collect$$rtentry$$0000000A)
    __rt_entry_postsh_1                      0x0800020b   Thumb Code     0  rtentry2.o(.ARM.Collect$$rtentry$$00000009)
    __rt_entry_main                          0x0800020f   Thumb Code     0  rtentry2.o(.ARM.Collect$$rtentry$$0000000D)
    __rt_entry_postli_1                      0x0800020f   Thumb Code     0  rtentry2.o(.ARM.Collect$$rtentry$$0000000C)
    __rt_exit                                0x08000217   Thumb Code     0  rtexit.o(.ARM.Collect$$rtexit$$00000000)
    __rt_exit_ls                             0x08000219   Thumb Code     0  rtexit2.o(.ARM.Collect$$rtexit$$00000003)
    __rt_exit_prels_1                        0x08000219   Thumb Code     0  rtexit2.o(.ARM.Collect$$rtexit$$00000002)
    __rt_exit_exit                           0x0800021d   Thumb Code     0  rtexit2.o(.ARM.Collect$$rtexit$$00000004)
    Reset_Handler                            0x08000225   Thumb Code     8  startup_stm32f10x_hd.o(.text)
    _maybe_terminate_alloc                   0x08000225   Thumb Code     0  maybetermalloc1.o(.emb_text)
    PendSV_Handler                           0x0800023b   Thumb Code     2  startup_stm32f10x_hd.o(.text)
    ADC1_2_IRQHandler                        0x0800023f   Thumb Code     0  startup_stm32f10x_hd.o(.text)
    ADC3_IRQHandler                          0x0800023f   Thumb Code     0  startup_stm32f10x_hd.o(.text)
    CAN1_RX1_IRQHandler                      0x0800023f   Thumb Code     0  startup_stm32f10x_hd.o(.text)
    CAN1_SCE_IRQHandler                      0x0800023f   Thumb Code     0  startup_stm32f10x_hd.o(.text)
    DMA1_Channel1_IRQHandler                 0x0800023f   Thumb Code     0  startup_stm32f10x_hd.o(.text)
    DMA1_Channel2_IRQHandler                 0x0800023f   Thumb Code     0  startup_stm32f10x_hd.o(.text)
    DMA1_Channel3_IRQHandler                 0x0800023f   Thumb Code     0  startup_stm32f10x_hd.o(.text)
    DMA1_Channel4_IRQHandler                 0x0800023f   Thumb Code     0  startup_stm32f10x_hd.o(.text)
    DMA1_Channel5_IRQHandler                 0x0800023f   Thumb Code     0  startup_stm32f10x_hd.o(.text)
    DMA1_Channel6_IRQHandler                 0x0800023f   Thumb Code     0  startup_stm32f10x_hd.o(.text)
    DMA1_Channel7_IRQHandler                 0x0800023f   Thumb Code     0  startup_stm32f10x_hd.o(.text)
    DMA2_Channel1_IRQHandler                 0x0800023f   Thumb Code     0  startup_stm32f10x_hd.o(.text)
    DMA2_Channel2_IRQHandler                 0x0800023f   Thumb Code     0  startup_stm32f10x_hd.o(.text)
    DMA2_Channel3_IRQHandler                 0x0800023f   Thumb Code     0  startup_stm32f10x_hd.o(.text)
    DMA2_Channel4_5_IRQHandler               0x0800023f   Thumb Code     0  startup_stm32f10x_hd.o(.text)
    EXTI0_IRQHandler                         0x0800023f   Thumb Code     0  startup_stm32f10x_hd.o(.text)
    EXTI15_10_IRQHandler                     0x0800023f   Thumb Code     0  startup_stm32f10x_hd.o(.text)
    EXTI1_IRQHandler                         0x0800023f   Thumb Code     0  startup_stm32f10x_hd.o(.text)
    EXTI2_IRQHandler                         0x0800023f   Thumb Code     0  startup_stm32f10x_hd.o(.text)
    EXTI3_IRQHandler                         0x0800023f   Thumb Code     0  startup_stm32f10x_hd.o(.text)
    EXTI4_IRQHandler                         0x0800023f   Thumb Code     0  startup_stm32f10x_hd.o(.text)
    EXTI9_5_IRQHandler                       0x0800023f   Thumb Code     0  startup_stm32f10x_hd.o(.text)
    FLASH_IRQHandler                         0x0800023f   Thumb Code     0  startup_stm32f10x_hd.o(.text)
    FSMC_IRQHandler                          0x0800023f   Thumb Code     0  startup_stm32f10x_hd.o(.text)
    I2C1_ER_IRQHandler                       0x0800023f   Thumb Code     0  startup_stm32f10x_hd.o(.text)
    I2C1_EV_IRQHandler                       0x0800023f   Thumb Code     0  startup_stm32f10x_hd.o(.text)
    I2C2_ER_IRQHandler                       0x0800023f   Thumb Code     0  startup_stm32f10x_hd.o(.text)
    I2C2_EV_IRQHandler                       0x0800023f   Thumb Code     0  startup_stm32f10x_hd.o(.text)
    PVD_IRQHandler                           0x0800023f   Thumb Code     0  startup_stm32f10x_hd.o(.text)
    RCC_IRQHandler                           0x0800023f   Thumb Code     0  startup_stm32f10x_hd.o(.text)
    RTCAlarm_IRQHandler                      0x0800023f   Thumb Code     0  startup_stm32f10x_hd.o(.text)
    SPI1_IRQHandler                          0x0800023f   Thumb Code     0  startup_stm32f10x_hd.o(.text)
    SPI2_IRQHandler                          0x0800023f   Thumb Code     0  startup_stm32f10x_hd.o(.text)
    SPI3_IRQHandler                          0x0800023f   Thumb Code     0  startup_stm32f10x_hd.o(.text)
    TAMPER_IRQHandler                        0x0800023f   Thumb Code     0  startup_stm32f10x_hd.o(.text)
    TIM1_BRK_IRQHandler                      0x0800023f   Thumb Code     0  startup_stm32f10x_hd.o(.text)
    TIM1_CC_IRQHandler                       0x0800023f   Thumb Code     0  startup_stm32f10x_hd.o(.text)
    TIM1_TRG_COM_IRQHandler                  0x0800023f   Thumb Code     0  startup_stm32f10x_hd.o(.text)
    TIM1_UP_IRQHandler                       0x0800023f   Thumb Code     0  startup_stm32f10x_hd.o(.text)
    TIM2_IRQHandler                          0x0800023f   Thumb Code     0  startup_stm32f10x_hd.o(.text)
    TIM3_IRQHandler                          0x0800023f   Thumb Code     0  startup_stm32f10x_hd.o(.text)
    TIM4_IRQHandler                          0x0800023f   Thumb Code     0  startup_stm32f10x_hd.o(.text)
    TIM5_IRQHandler                          0x0800023f   Thumb Code     0  startup_stm32f10x_hd.o(.text)
    TIM6_IRQHandler                          0x0800023f   Thumb Code     0  startup_stm32f10x_hd.o(.text)
    TIM7_IRQHandler                          0x0800023f   Thumb Code     0  startup_stm32f10x_hd.o(.text)
    TIM8_BRK_IRQHandler                      0x0800023f   Thumb Code     0  startup_stm32f10x_hd.o(.text)
    TIM8_CC_IRQHandler                       0x0800023f   Thumb Code     0  startup_stm32f10x_hd.o(.text)
    TIM8_TRG_COM_IRQHandler                  0x0800023f   Thumb Code     0  startup_stm32f10x_hd.o(.text)
    TIM8_UP_IRQHandler                       0x0800023f   Thumb Code     0  startup_stm32f10x_hd.o(.text)
    UART4_IRQHandler                         0x0800023f   Thumb Code     0  startup_stm32f10x_hd.o(.text)
    UART5_IRQHandler                         0x0800023f   Thumb Code     0  startup_stm32f10x_hd.o(.text)
    USART2_IRQHandler                        0x0800023f   Thumb Code     0  startup_stm32f10x_hd.o(.text)
    USART3_IRQHandler                        0x0800023f   Thumb Code     0  startup_stm32f10x_hd.o(.text)
    USBWakeUp_IRQHandler                     0x0800023f   Thumb Code     0  startup_stm32f10x_hd.o(.text)
    USB_HP_CAN1_TX_IRQHandler                0x0800023f   Thumb Code     0  startup_stm32f10x_hd.o(.text)
    USB_LP_CAN1_RX0_IRQHandler               0x0800023f   Thumb Code     0  startup_stm32f10x_hd.o(.text)
    WWDG_IRQHandler                          0x0800023f   Thumb Code     0  startup_stm32f10x_hd.o(.text)
    __user_initial_stackheap                 0x08000241   Thumb Code     0  startup_stm32f10x_hd.o(.text)
    NVIC_PriorityGroupConfig                 0x08000265   Thumb Code    10  misc.o(.text)
    NVIC_Init                                0x0800026f   Thumb Code   102  misc.o(.text)
    NVIC_SetVectorTable                      0x080002d5   Thumb Code    14  misc.o(.text)
    NVIC_SystemLPConfig                      0x080002e3   Thumb Code    34  misc.o(.text)
    SysTick_CLKSourceConfig                  0x08000305   Thumb Code    40  misc.o(.text)
    FLASH_SetLatency                         0x08000341   Thumb Code    18  stm32f10x_flash.o(.text)
    FLASH_HalfCycleAccessCmd                 0x08000353   Thumb Code    22  stm32f10x_flash.o(.text)
    FLASH_PrefetchBufferCmd                  0x08000369   Thumb Code    22  stm32f10x_flash.o(.text)
    FLASH_Unlock                             0x0800037f   Thumb Code    12  stm32f10x_flash.o(.text)
    FLASH_UnlockBank1                        0x0800038b   Thumb Code    12  stm32f10x_flash.o(.text)
    FLASH_Lock                               0x08000397   Thumb Code    14  stm32f10x_flash.o(.text)
    FLASH_LockBank1                          0x080003a5   Thumb Code    14  stm32f10x_flash.o(.text)
    FLASH_GetBank1Status                     0x080003b3   Thumb Code    48  stm32f10x_flash.o(.text)
    FLASH_WaitForLastOperation               0x080003e3   Thumb Code    38  stm32f10x_flash.o(.text)
    FLASH_ErasePage                          0x08000409   Thumb Code    72  stm32f10x_flash.o(.text)
    FLASH_EraseAllPages                      0x08000451   Thumb Code    68  stm32f10x_flash.o(.text)
    FLASH_WaitForLastBank1Operation          0x08000495   Thumb Code    38  stm32f10x_flash.o(.text)
    FLASH_EraseAllBank1Pages                 0x080004bb   Thumb Code    68  stm32f10x_flash.o(.text)
    FLASH_GetReadOutProtectionStatus         0x080004ff   Thumb Code    20  stm32f10x_flash.o(.text)
    FLASH_EraseOptionBytes                   0x08000513   Thumb Code   150  stm32f10x_flash.o(.text)
    FLASH_ProgramWord                        0x080005a9   Thumb Code   102  stm32f10x_flash.o(.text)
    FLASH_ProgramHalfWord                    0x0800060f   Thumb Code    60  stm32f10x_flash.o(.text)
    FLASH_ProgramOptionByteData              0x0800064b   Thumb Code    72  stm32f10x_flash.o(.text)
    FLASH_EnableWriteProtection              0x08000693   Thumb Code   200  stm32f10x_flash.o(.text)
    FLASH_ReadOutProtection                  0x0800075b   Thumb Code   156  stm32f10x_flash.o(.text)
    FLASH_UserOptionByteConfig               0x080007f7   Thumb Code    88  stm32f10x_flash.o(.text)
    FLASH_GetUserOptionByte                  0x0800084f   Thumb Code     8  stm32f10x_flash.o(.text)
    FLASH_GetWriteProtectionOptionByte       0x08000857   Thumb Code     6  stm32f10x_flash.o(.text)
    FLASH_GetPrefetchBufferStatus            0x0800085d   Thumb Code    20  stm32f10x_flash.o(.text)
    FLASH_ITConfig                           0x08000871   Thumb Code    26  stm32f10x_flash.o(.text)
    FLASH_GetFlagStatus                      0x0800088b   Thumb Code    42  stm32f10x_flash.o(.text)
    FLASH_ClearFlag                          0x080008b5   Thumb Code     6  stm32f10x_flash.o(.text)
    FLASH_GetStatus                          0x080008bb   Thumb Code    48  stm32f10x_flash.o(.text)
    FSMC_NORSRAMDeInit                       0x080008fd   Thumb Code    56  stm32f10x_fsmc.o(.text)
    FSMC_NANDDeInit                          0x08000935   Thumb Code    62  stm32f10x_fsmc.o(.text)
    FSMC_PCCARDDeInit                        0x08000973   Thumb Code    40  stm32f10x_fsmc.o(.text)
    FSMC_NORSRAMInit                         0x0800099b   Thumb Code   224  stm32f10x_fsmc.o(.text)
    FSMC_NANDInit                            0x08000a7b   Thumb Code   130  stm32f10x_fsmc.o(.text)
    FSMC_PCCARDInit                          0x08000afd   Thumb Code   124  stm32f10x_fsmc.o(.text)
    FSMC_NORSRAMStructInit                   0x08000b79   Thumb Code   114  stm32f10x_fsmc.o(.text)
    FSMC_NANDStructInit                      0x08000beb   Thumb Code    54  stm32f10x_fsmc.o(.text)
    FSMC_PCCARDStructInit                    0x08000c21   Thumb Code    60  stm32f10x_fsmc.o(.text)
    FSMC_NORSRAMCmd                          0x08000c5d   Thumb Code    46  stm32f10x_fsmc.o(.text)
    FSMC_NANDCmd                             0x08000c8b   Thumb Code    86  stm32f10x_fsmc.o(.text)
    FSMC_PCCARDCmd                           0x08000ce1   Thumb Code    40  stm32f10x_fsmc.o(.text)
    FSMC_NANDECCCmd                          0x08000d09   Thumb Code   118  stm32f10x_fsmc.o(.text)
    FSMC_GetECC                              0x08000d7f   Thumb Code    22  stm32f10x_fsmc.o(.text)
    FSMC_ITConfig                            0x08000d95   Thumb Code   128  stm32f10x_fsmc.o(.text)
    FSMC_GetFlagStatus                       0x08000e15   Thumb Code    48  stm32f10x_fsmc.o(.text)
    FSMC_ClearFlag                           0x08000e45   Thumb Code    62  stm32f10x_fsmc.o(.text)
    FSMC_GetITStatus                         0x08000e83   Thumb Code    60  stm32f10x_fsmc.o(.text)
    FSMC_ClearITPendingBit                   0x08000ebf   Thumb Code    64  stm32f10x_fsmc.o(.text)
    GPIO_DeInit                              0x08000f15   Thumb Code   172  stm32f10x_gpio.o(.text)
    GPIO_AFIODeInit                          0x08000fc1   Thumb Code    20  stm32f10x_gpio.o(.text)
    GPIO_Init                                0x08000fd5   Thumb Code   274  stm32f10x_gpio.o(.text)
    GPIO_StructInit                          0x080010e7   Thumb Code    16  stm32f10x_gpio.o(.text)
    GPIO_ReadInputDataBit                    0x080010f7   Thumb Code    18  stm32f10x_gpio.o(.text)
    GPIO_ReadInputData                       0x08001109   Thumb Code     8  stm32f10x_gpio.o(.text)
    GPIO_ReadOutputDataBit                   0x08001111   Thumb Code    18  stm32f10x_gpio.o(.text)
    GPIO_ReadOutputData                      0x08001123   Thumb Code     8  stm32f10x_gpio.o(.text)
    GPIO_SetBits                             0x0800112b   Thumb Code     4  stm32f10x_gpio.o(.text)
    GPIO_ResetBits                           0x0800112f   Thumb Code     4  stm32f10x_gpio.o(.text)
    GPIO_WriteBit                            0x08001133   Thumb Code    10  stm32f10x_gpio.o(.text)
    GPIO_Write                               0x0800113d   Thumb Code     4  stm32f10x_gpio.o(.text)
    GPIO_PinLockConfig                       0x08001141   Thumb Code    18  stm32f10x_gpio.o(.text)
    GPIO_EventOutputConfig                   0x08001153   Thumb Code    26  stm32f10x_gpio.o(.text)
    GPIO_EventOutputCmd                      0x0800116d   Thumb Code     6  stm32f10x_gpio.o(.text)
    GPIO_PinRemapConfig                      0x08001173   Thumb Code   138  stm32f10x_gpio.o(.text)
    GPIO_EXTILineConfig                      0x080011fd   Thumb Code    66  stm32f10x_gpio.o(.text)
    GPIO_ETH_MediaInterfaceConfig            0x0800123f   Thumb Code     6  stm32f10x_gpio.o(.text)
    RCC_DeInit                               0x0800126d   Thumb Code    64  stm32f10x_rcc.o(.text)
    RCC_HSEConfig                            0x080012ad   Thumb Code    70  stm32f10x_rcc.o(.text)
    RCC_GetFlagStatus                        0x080012f3   Thumb Code    56  stm32f10x_rcc.o(.text)
    RCC_WaitForHSEStartUp                    0x0800132b   Thumb Code    56  stm32f10x_rcc.o(.text)
    RCC_AdjustHSICalibrationValue            0x08001363   Thumb Code    20  stm32f10x_rcc.o(.text)
    RCC_HSICmd                               0x08001377   Thumb Code     6  stm32f10x_rcc.o(.text)
    RCC_PLLConfig                            0x0800137d   Thumb Code    24  stm32f10x_rcc.o(.text)
    RCC_PLLCmd                               0x08001395   Thumb Code     6  stm32f10x_rcc.o(.text)
    RCC_SYSCLKConfig                         0x0800139b   Thumb Code    18  stm32f10x_rcc.o(.text)
    RCC_GetSYSCLKSource                      0x080013ad   Thumb Code    10  stm32f10x_rcc.o(.text)
    RCC_HCLKConfig                           0x080013b7   Thumb Code    18  stm32f10x_rcc.o(.text)
    RCC_PCLK1Config                          0x080013c9   Thumb Code    18  stm32f10x_rcc.o(.text)
    RCC_PCLK2Config                          0x080013db   Thumb Code    20  stm32f10x_rcc.o(.text)
    RCC_ITConfig                             0x080013ef   Thumb Code    26  stm32f10x_rcc.o(.text)
    RCC_USBCLKConfig                         0x08001409   Thumb Code     6  stm32f10x_rcc.o(.text)
    RCC_ADCCLKConfig                         0x0800140f   Thumb Code    18  stm32f10x_rcc.o(.text)
    RCC_LSEConfig                            0x08001421   Thumb Code    44  stm32f10x_rcc.o(.text)
    RCC_LSICmd                               0x0800144d   Thumb Code     6  stm32f10x_rcc.o(.text)
    RCC_RTCCLKConfig                         0x08001453   Thumb Code    12  stm32f10x_rcc.o(.text)
    RCC_RTCCLKCmd                            0x0800145f   Thumb Code     8  stm32f10x_rcc.o(.text)
    RCC_GetClocksFreq                        0x08001467   Thumb Code   192  stm32f10x_rcc.o(.text)
    RCC_AHBPeriphClockCmd                    0x08001527   Thumb Code    26  stm32f10x_rcc.o(.text)
    RCC_APB2PeriphClockCmd                   0x08001541   Thumb Code    26  stm32f10x_rcc.o(.text)
    RCC_APB1PeriphClockCmd                   0x0800155b   Thumb Code    26  stm32f10x_rcc.o(.text)
    RCC_APB2PeriphResetCmd                   0x08001575   Thumb Code    26  stm32f10x_rcc.o(.text)
    RCC_APB1PeriphResetCmd                   0x0800158f   Thumb Code    26  stm32f10x_rcc.o(.text)
    RCC_BackupResetCmd                       0x080015a9   Thumb Code     8  stm32f10x_rcc.o(.text)
    RCC_ClockSecuritySystemCmd               0x080015b1   Thumb Code     6  stm32f10x_rcc.o(.text)
    RCC_MCOConfig                            0x080015b7   Thumb Code     6  stm32f10x_rcc.o(.text)
    RCC_ClearFlag                            0x080015bd   Thumb Code    14  stm32f10x_rcc.o(.text)
    RCC_GetITStatus                          0x080015cb   Thumb Code    20  stm32f10x_rcc.o(.text)
    RCC_ClearITPendingBit                    0x080015df   Thumb Code     6  stm32f10x_rcc.o(.text)
    USART_DeInit                             0x08001611   Thumb Code   134  stm32f10x_usart.o(.text)
    USART_Init                               0x08001697   Thumb Code   210  stm32f10x_usart.o(.text)
    USART_StructInit                         0x08001769   Thumb Code    24  stm32f10x_usart.o(.text)
    USART_ClockInit                          0x08001781   Thumb Code    34  stm32f10x_usart.o(.text)
    USART_ClockStructInit                    0x080017a3   Thumb Code    12  stm32f10x_usart.o(.text)
    USART_Cmd                                0x080017af   Thumb Code    24  stm32f10x_usart.o(.text)
    USART_ITConfig                           0x080017c7   Thumb Code    74  stm32f10x_usart.o(.text)
    USART_DMACmd                             0x08001811   Thumb Code    18  stm32f10x_usart.o(.text)
    USART_SetAddress                         0x08001823   Thumb Code    18  stm32f10x_usart.o(.text)
    USART_WakeUpConfig                       0x08001835   Thumb Code    18  stm32f10x_usart.o(.text)
    USART_ReceiverWakeUpCmd                  0x08001847   Thumb Code    24  stm32f10x_usart.o(.text)
    USART_LINBreakDetectLengthConfig         0x0800185f   Thumb Code    18  stm32f10x_usart.o(.text)
    USART_LINCmd                             0x08001871   Thumb Code    24  stm32f10x_usart.o(.text)
    USART_SendData                           0x08001889   Thumb Code     8  stm32f10x_usart.o(.text)
    USART_ReceiveData                        0x08001891   Thumb Code    10  stm32f10x_usart.o(.text)
    USART_SendBreak                          0x0800189b   Thumb Code    10  stm32f10x_usart.o(.text)
    USART_SetGuardTime                       0x080018a5   Thumb Code    16  stm32f10x_usart.o(.text)
    USART_SetPrescaler                       0x080018b5   Thumb Code    16  stm32f10x_usart.o(.text)
    USART_SmartCardCmd                       0x080018c5   Thumb Code    24  stm32f10x_usart.o(.text)
    USART_SmartCardNACKCmd                   0x080018dd   Thumb Code    24  stm32f10x_usart.o(.text)
    USART_HalfDuplexCmd                      0x080018f5   Thumb Code    24  stm32f10x_usart.o(.text)
    USART_OverSampling8Cmd                   0x0800190d   Thumb Code    22  stm32f10x_usart.o(.text)
    USART_OneBitMethodCmd                    0x08001923   Thumb Code    24  stm32f10x_usart.o(.text)
    USART_IrDAConfig                         0x0800193b   Thumb Code    18  stm32f10x_usart.o(.text)
    USART_IrDACmd                            0x0800194d   Thumb Code    24  stm32f10x_usart.o(.text)
    USART_GetFlagStatus                      0x08001965   Thumb Code    26  stm32f10x_usart.o(.text)
    USART_ClearFlag                          0x0800197f   Thumb Code    18  stm32f10x_usart.o(.text)
    USART_GetITStatus                        0x08001991   Thumb Code    84  stm32f10x_usart.o(.text)
    USART_ClearITPendingBit                  0x080019e5   Thumb Code    52  stm32f10x_usart.o(.text)
    RTC_ITConfig                             0x08001a19   Thumb Code    26  stm32f10x_rtc.o(.text)
    RTC_EnterConfigMode                      0x08001a33   Thumb Code    18  stm32f10x_rtc.o(.text)
    RTC_ExitConfigMode                       0x08001a45   Thumb Code    20  stm32f10x_rtc.o(.text)
    RTC_GetCounter                           0x08001a59   Thumb Code    18  stm32f10x_rtc.o(.text)
    RTC_SetCounter                           0x08001a6b   Thumb Code    26  stm32f10x_rtc.o(.text)
    RTC_SetPrescaler                         0x08001a85   Thumb Code    28  stm32f10x_rtc.o(.text)
    RTC_SetAlarm                             0x08001aa1   Thumb Code    26  stm32f10x_rtc.o(.text)
    RTC_GetDivider                           0x08001abb   Thumb Code    22  stm32f10x_rtc.o(.text)
    RTC_WaitForLastTask                      0x08001ad1   Thumb Code    16  stm32f10x_rtc.o(.text)
    RTC_WaitForSynchro                       0x08001ae1   Thumb Code    34  stm32f10x_rtc.o(.text)
    RTC_GetFlagStatus                        0x08001b03   Thumb Code    22  stm32f10x_rtc.o(.text)
    RTC_ClearFlag                            0x08001b19   Thumb Code    16  stm32f10x_rtc.o(.text)
    RTC_GetITStatus                          0x08001b29   Thumb Code    32  stm32f10x_rtc.o(.text)
    RTC_ClearITPendingBit                    0x08001b49   Thumb Code    16  stm32f10x_rtc.o(.text)
    BKP_DeInit                               0x08001b5d   Thumb Code    16  stm32f10x_bkp.o(.text)
    BKP_TamperPinLevelConfig                 0x08001b6d   Thumb Code     6  stm32f10x_bkp.o(.text)
    BKP_TamperPinCmd                         0x08001b73   Thumb Code     8  stm32f10x_bkp.o(.text)
    BKP_ITConfig                             0x08001b7b   Thumb Code     8  stm32f10x_bkp.o(.text)
    BKP_RTCOutputConfig                      0x08001b83   Thumb Code    22  stm32f10x_bkp.o(.text)
    BKP_SetRTCCalibrationValue               0x08001b99   Thumb Code    22  stm32f10x_bkp.o(.text)
    BKP_WriteBackupRegister                  0x08001baf   Thumb Code    24  stm32f10x_bkp.o(.text)
    BKP_ReadBackupRegister                   0x08001bc7   Thumb Code    26  stm32f10x_bkp.o(.text)
    BKP_GetFlagStatus                        0x08001be1   Thumb Code    10  stm32f10x_bkp.o(.text)
    BKP_ClearFlag                            0x08001beb   Thumb Code    18  stm32f10x_bkp.o(.text)
    BKP_GetITStatus                          0x08001bfd   Thumb Code    10  stm32f10x_bkp.o(.text)
    BKP_ClearITPendingBit                    0x08001c07   Thumb Code    18  stm32f10x_bkp.o(.text)
    PWR_DeInit                               0x08001c21   Thumb Code    22  stm32f10x_pwr.o(.text)
    PWR_BackupAccessCmd                      0x08001c37   Thumb Code     6  stm32f10x_pwr.o(.text)
    PWR_PVDCmd                               0x08001c3d   Thumb Code     6  stm32f10x_pwr.o(.text)
    PWR_PVDLevelConfig                       0x08001c43   Thumb Code    18  stm32f10x_pwr.o(.text)
    PWR_WakeUpPinCmd                         0x08001c55   Thumb Code     6  stm32f10x_pwr.o(.text)
    PWR_EnterSTOPMode                        0x08001c5b   Thumb Code    54  stm32f10x_pwr.o(.text)
    PWR_EnterSTANDBYMode                     0x08001c91   Thumb Code    42  stm32f10x_pwr.o(.text)
    PWR_GetFlagStatus                        0x08001cbb   Thumb Code    20  stm32f10x_pwr.o(.text)
    PWR_ClearFlag                            0x08001ccf   Thumb Code    14  stm32f10x_pwr.o(.text)
    NMI_Handler                              0x08001ced   Thumb Code     2  stm32f10x_it.o(.text)
    HardFault_Handler                        0x08001cef   Thumb Code    18  stm32f10x_it.o(.text)
    MemManage_Handler                        0x08001d01   Thumb Code     4  stm32f10x_it.o(.text)
    BusFault_Handler                         0x08001d05   Thumb Code     4  stm32f10x_it.o(.text)
    UsageFault_Handler                       0x08001d09   Thumb Code    18  stm32f10x_it.o(.text)
    SVC_Handler                              0x08001d1b   Thumb Code     2  stm32f10x_it.o(.text)
    DebugMon_Handler                         0x08001d1d   Thumb Code     2  stm32f10x_it.o(.text)
    SysTick_Handler                          0x08001d1f   Thumb Code     2  stm32f10x_it.o(.text)
    SystemInit                               0x08001e75   Thumb Code    78  system_stm32f10x.o(.text)
    SystemCoreClockUpdate                    0x08001ec3   Thumb Code   142  system_stm32f10x.o(.text)
    main                                     0x08001fb1   Thumb Code    20  system_main.o(.text)
    power_init                               0x08001fc5   Thumb Code     2  power_api.o(.text)
    power_shutdown                           0x08001fc7   Thumb Code    14  power_api.o(.text)
    led_power_on                             0x08001fd9   Thumb Code    12  led_api.o(.text)
    led_power_off                            0x08001fe5   Thumb Code    12  led_api.o(.text)
    led_work_on                              0x08001ff1   Thumb Code    12  led_api.o(.text)
    led_work_off                             0x08001ffd   Thumb Code    12  led_api.o(.text)
    led_init                                 0x08002009   Thumb Code    80  led_api.o(.text)
    beep_on                                  0x08002061   Thumb Code    14  beep_api.o(.text)
    beep_off                                 0x0800206f   Thumb Code    14  beep_api.o(.text)
    beep_init                                0x0800207d   Thumb Code    44  beep_api.o(.text)
    key_stat                                 0x080020ad   Thumb Code    98  key_api.o(.text)
    key_init                                 0x0800210f   Thumb Code    60  key_api.o(.text)
    sram_init                                0x0800220f   Thumb Code    50  sram_api.o(.text)
    sram_write                               0x08002255   Thumb Code    44  sram_api.o(.text)
    sram_read                                0x08002281   Thumb Code    44  sram_api.o(.text)
    sram_get_size                            0x080022ad   Thumb Code     6  sram_api.o(.text)
    flash_inside_init                        0x080022df   Thumb Code     2  flash_inside_api.o(.text)
    flash_inside_get_size                    0x080022e1   Thumb Code     6  flash_inside_api.o(.text)
    flash_inside_erase_all                   0x080022e7   Thumb Code    24  flash_inside_api.o(.text)
    flash_inside_read                        0x080022ff   Thumb Code    40  flash_inside_api.o(.text)
    flash_inside_write                       0x08002327   Thumb Code   160  flash_inside_api.o(.text)
    flash_outside_init                       0x080023cd   Thumb Code     8  flash_outside_api.o(.text)
    flash_write                              0x080023d5   Thumb Code    20  flash_outside_api.o(.text)
    flash_read                               0x080023e9   Thumb Code    20  flash_outside_api.o(.text)
    flash_get_id                             0x080023fd   Thumb Code     8  flash_outside_api.o(.text)
    flash_get_size                           0x08002405   Thumb Code     6  flash_outside_api.o(.text)
    flash_erase_all                          0x0800240b   Thumb Code     8  flash_outside_api.o(.text)
    flash_erase_page                         0x08002413   Thumb Code    12  flash_outside_api.o(.text)
    SPI2_SetSpeed                            0x08002421   Thumb Code    40  flash_device_api.o(.text)
    SPI2_ReadWriteByte                       0x08002449   Thumb Code    82  flash_device_api.o(.text)
    SPI_Flash_ReadID                         0x0800249b   Thumb Code    66  flash_device_api.o(.text)
    SPI_Flash_Init                           0x080024dd   Thumb Code   226  flash_device_api.o(.text)
    SPI_Flash_ReadSR                         0x080025bf   Thumb Code    38  flash_device_api.o(.text)
    SPI_FLASH_Write_SR                       0x080025e5   Thumb Code    34  flash_device_api.o(.text)
    SPI_FLASH_Write_Enable                   0x08002607   Thumb Code    26  flash_device_api.o(.text)
    SPI_FLASH_Write_Disable                  0x08002621   Thumb Code    26  flash_device_api.o(.text)
    SPI_Flash_Read                           0x0800263b   Thumb Code    72  flash_device_api.o(.text)
    SPI_Flash_Wait_Busy                      0x08002683   Thumb Code    16  flash_device_api.o(.text)
    SPI_Flash_Write_Page                     0x08002693   Thumb Code    78  flash_device_api.o(.text)
    SPI_Flash_Write_NoCheck                  0x080026e1   Thumb Code    66  flash_device_api.o(.text)
    SPI_Flash_Erase_Sector                   0x08002723   Thumb Code    64  flash_device_api.o(.text)
    SPI_Flash_Write                          0x08002763   Thumb Code   212  flash_device_api.o(.text)
    SPI_Flash_Erase_Chip                     0x08002837   Thumb Code    38  flash_device_api.o(.text)
    SPI_Flash_PowerDown                      0x0800285d   Thumb Code    32  flash_device_api.o(.text)
    SPI_Flash_WAKEUP                         0x0800287d   Thumb Code    32  flash_device_api.o(.text)
    SD_SetDeviceMode                         0x080028a5   Thumb Code    20  sdio_sdcard.o(.text)
    SDIO_Clock_Set                           0x080028b9   Thumb Code    22  sdio_sdcard.o(.text)
    CmdResp1Error                            0x080028cf   Thumb Code    82  sdio_sdcard.o(.text)
    SDIO_Send_Cmd                            0x08002921   Thumb Code    58  sdio_sdcard.o(.text)
    SDIO_Send_Data_Cfg                       0x0800295b   Thumb Code    68  sdio_sdcard.o(.text)
    FindSCR                                  0x0800299f   Thumb Code   324  sdio_sdcard.o(.text)
    SDEnWideBus                              0x08002ae3   Thumb Code   118  sdio_sdcard.o(.text)
    SD_EnableWideBusOperation                0x08002b59   Thumb Code    94  sdio_sdcard.o(.text)
    SD_SelectDeselect                        0x08002bb7   Thumb Code    22  sdio_sdcard.o(.text)
    SD_GetCardInfo                           0x08002bcd   Thumb Code   844  sdio_sdcard.o(.text)
    CmdResp2Error                            0x08002f19   Thumb Code    88  sdio_sdcard.o(.text)
    CmdResp6Error                            0x08002f71   Thumb Code   142  sdio_sdcard.o(.text)
    SD_InitializeCards                       0x08002fff   Thumb Code   264  sdio_sdcard.o(.text)
    CmdResp3Error                            0x08003107   Thumb Code    52  sdio_sdcard.o(.text)
    CmdResp7Error                            0x0800313b   Thumb Code    80  sdio_sdcard.o(.text)
    CmdError                                 0x0800318b   Thumb Code    48  sdio_sdcard.o(.text)
    SD_PowerON                               0x080031bb   Thumb Code   358  sdio_sdcard.o(.text)
    SD_Init                                  0x08003321   Thumb Code   208  sdio_sdcard.o(.text)
    SD_PowerOFF                              0x080033f1   Thumb Code    16  sdio_sdcard.o(.text)
    SD_DMA_Config                            0x08003401   Thumb Code   144  sdio_sdcard.o(.text)
    convert_from_bytes_to_power_of_two       0x08003491   Thumb Code    18  sdio_sdcard.o(.text)
    SD_ReadBlock                             0x080034a3   Thumb Code   538  sdio_sdcard.o(.text)
    SD_ReadMultiBlocks                       0x080036bd   Thumb Code   560  sdio_sdcard.o(.text)
    IsCardProgramming                        0x080038ed   Thumb Code   178  sdio_sdcard.o(.text)
    SD_WriteBlock                            0x0800399f   Thumb Code   704  sdio_sdcard.o(.text)
    SD_WriteMultiBlocks                      0x08003c5f   Thumb Code   818  sdio_sdcard.o(.text)
    SD_ProcessIRQSrc                         0x08003f91   Thumb Code   310  sdio_sdcard.o(.text)
    SDIO_IRQHandler                          0x080040c7   Thumb Code     8  sdio_sdcard.o(.text)
    SD_ReadDisk                              0x080040cf   Thumb Code   116  sdio_sdcard.o(.text)
    SD_WriteDisk                             0x08004143   Thumb Code   162  sdio_sdcard.o(.text)
    SD_GetSectorCount                        0x080041e5   Thumb Code    22  sdio_sdcard.o(.text)
    uart_interrupt_on                        0x08004201   Thumb Code    16  uart_api.o(.text)
    uart_interrupt_exit                      0x08004211   Thumb Code    16  uart_api.o(.text)
    uart_receive_bit                         0x08004221   Thumb Code    28  uart_api.o(.text)
    uart_init                                0x0800423d   Thumb Code   144  uart_api.o(.text)
    uart_send                                0x080042cd   Thumb Code    68  uart_api.o(.text)
    USART1_IRQHandler                        0x08004311   Thumb Code   306  uart_api.o(.text)
    lcd_on                                   0x08004473   Thumb Code     8  lcd_api.o(.text)
    lcd_setting                              0x0800447b   Thumb Code    64  lcd_api.o(.text)
    lcd_font                                 0x080044bb   Thumb Code     6  lcd_api.o(.text)
    lcd_background                           0x080044c1   Thumb Code    20  lcd_api.o(.text)
    lcd_init                                 0x080044d5   Thumb Code    44  lcd_api.o(.text)
    lcd_draw_rectangle                       0x08004501   Thumb Code    86  lcd_api.o(.text)
    lcd_off                                  0x08004557   Thumb Code    30  lcd_api.o(.text)
    lcd_display_state                        0x08004575   Thumb Code     6  lcd_api.o(.text)
    lcd_read_point                           0x0800457b   Thumb Code    16  lcd_api.o(.text)
    lcd_draw_point                           0x0800458b   Thumb Code    30  lcd_api.o(.text)
    lcd_draw_circle                          0x080045a9   Thumb Code    54  lcd_api.o(.text)
    lcd_draw_line                            0x080045df   Thumb Code    60  lcd_api.o(.text)
    lcd_cursor_set                           0x0800461b   Thumb Code    26  lcd_api.o(.text)
    lcd_print_clean                          0x08004635   Thumb Code    40  lcd_api.o(.text)
    lcd_print_line                           0x0800465d   Thumb Code   430  lcd_api.o(.text)
    lcd_print                                0x0800480b   Thumb Code   170  lcd_api.o(.text)
    lcd_print_crlf                           0x080048b5   Thumb Code    20  lcd_api.o(.text)
    lcd_is_touch                             0x080048c9   Thumb Code    18  lcd_api.o(.text)
    lcd_touch_x                              0x080048db   Thumb Code    16  lcd_api.o(.text)
    lcd_touch_y                              0x080048eb   Thumb Code    16  lcd_api.o(.text)
    lcd_calcu_middle_location                0x080048fb   Thumb Code    24  lcd_api.o(.text)
    LCD_WR_REG                               0x08004921   Thumb Code     6  lcd_device_api.o(.text)
    LCD_WR_DATA                              0x08004927   Thumb Code     8  lcd_device_api.o(.text)
    LCD_RD_DATA                              0x0800492f   Thumb Code     8  lcd_device_api.o(.text)
    LCD_WriteReg                             0x08004937   Thumb Code    10  lcd_device_api.o(.text)
    LCD_ReadReg                              0x08004941   Thumb Code    22  lcd_device_api.o(.text)
    LCD_WriteRAM_Prepare                     0x08004957   Thumb Code    10  lcd_device_api.o(.text)
    LCD_WriteRAM                             0x08004961   Thumb Code     8  lcd_device_api.o(.text)
    LCD_BGR2RGB                              0x08004969   Thumb Code    26  lcd_device_api.o(.text)
    opt_delay                                0x08004983   Thumb Code    14  lcd_device_api.o(.text)
    LCD_SetCursor                            0x08004991   Thumb Code   112  lcd_device_api.o(.text)
    LCD_ReadPoint                            0x08004a01   Thumb Code   278  lcd_device_api.o(.text)
    LCD_DisplayOn                            0x08004b17   Thumb Code    46  lcd_device_api.o(.text)
    LCD_DisplayOff                           0x08004b45   Thumb Code    44  lcd_device_api.o(.text)
    LCD_Scan_Dir                             0x08004b71   Thumb Code   464  lcd_device_api.o(.text)
    LCD_DrawPoint                            0x08004d41   Thumb Code    28  lcd_device_api.o(.text)
    LCD_Fast_DrawPoint                       0x08004d5d   Thumb Code   128  lcd_device_api.o(.text)
    LCD_Display_Dir                          0x08004ddd   Thumb Code   238  lcd_device_api.o(.text)
    LCD_Clear                                0x08004ecb   Thumb Code    42  lcd_device_api.o(.text)
    LCD_Init                                 0x08004ef5   Thumb Code  6228  lcd_device_api.o(.text)
    LCD_Fill                                 0x08006749   Thumb Code    80  lcd_device_api.o(.text)
    LCD_Color_Fill                           0x08006799   Thumb Code    92  lcd_device_api.o(.text)
    LCD_DrawLine                             0x080067f5   Thumb Code   176  lcd_device_api.o(.text)
    LCD_DrawRectangle                        0x080068a5   Thumb Code    60  lcd_device_api.o(.text)
    Draw_Circle                              0x080068e1   Thumb Code   152  lcd_device_api.o(.text)
    LCD_ShowChar                             0x08006979   Thumb Code   362  lcd_device_api.o(.text)
    LCD_Pow                                  0x08006ae3   Thumb Code    22  lcd_device_api.o(.text)
    LCD_ShowNum                              0x08006af9   Thumb Code   148  lcd_device_api.o(.text)
    LCD_ShowxNum                             0x08006b8d   Thumb Code   190  lcd_device_api.o(.text)
    LCD_ShowString                           0x08006c4b   Thumb Code   102  lcd_device_api.o(.text)
    TP_Write_Byte                            0x08006cc5   Thumb Code    64  lcd_device_touch.o(.text)
    TP_Read_AD                               0x08006d05   Thumb Code   124  lcd_device_touch.o(.text)
    TP_Read_XOY                              0x08006d81   Thumb Code   120  lcd_device_touch.o(.text)
    TP_Read_XY                               0x08006df9   Thumb Code    38  lcd_device_touch.o(.text)
    TP_Read_XY2                              0x08006e1f   Thumb Code   192  lcd_device_touch.o(.text)
    TP_Drow_Touch_Point                      0x08006edf   Thumb Code   108  lcd_device_touch.o(.text)
    TP_Draw_Big_Point                        0x08006f4b   Thumb Code    54  lcd_device_touch.o(.text)
    TP_Scan                                  0x08006f81   Thumb Code   244  lcd_device_touch.o(.text)
    TP_Save_Adjdata                          0x08007075   Thumb Code   168  lcd_device_touch.o(.text)
    TP_Get_Adjdata                           0x0800711d   Thumb Code   152  lcd_device_touch.o(.text)
    TP_Adj_Info_Show                         0x080071b5   Thumb Code   376  lcd_device_touch.o(.text)
    TP_Adjust                                0x0800732d   Thumb Code  2082  lcd_device_touch.o(.text)
    TP_Init                                  0x08007b4f   Thumb Code   218  lcd_device_touch.o(.text)
    time_exit                                0x08007c9d   Thumb Code     8  time_api.o(.text)
    time_init                                0x08007ca5   Thumb Code    16  time_api.o(.text)
    time_get                                 0x08007cb5   Thumb Code    46  time_api.o(.text)
    time_set                                 0x08007ce3   Thumb Code    28  time_api.o(.text)
    time_alarm_add                           0x08007cff   Thumb Code   188  time_api.o(.text)
    time_alarm_delete                        0x08007dbb   Thumb Code   252  time_api.o(.text)
    time_notice                              0x08007eb7   Thumb Code   248  time_api.o(.text)
    reset_wait_time                          0x08007fb9   Thumb Code    14  rtc_device_api.o(.text)
    RTC_Exit                                 0x08007fe7   Thumb Code    12  rtc_device_api.o(.text)
    RTC_Get_Week                             0x08008001   Thumb Code   116  rtc_device_api.o(.text)
    Is_Leap_Year                             0x08008075   Thumb Code    58  rtc_device_api.o(.text)
    RTC_Get                                  0x080080af   Thumb Code   246  rtc_device_api.o(.text)
    RTC_Set                                  0x080081a5   Thumb Code   184  rtc_device_api.o(.text)
    RTC_Init                                 0x0800825d   Thumb Code   186  rtc_device_api.o(.text)
    RTC_IRQHandler                           0x08008317   Thumb Code   198  rtc_device_api.o(.text)
    delay_init                               0x080083dd   Thumb Code    50  delay.o(.text)
    delay_us                                 0x0800840f   Thumb Code    70  delay.o(.text)
    delay_ms                                 0x08008455   Thumb Code    70  delay.o(.text)
    NVIC_Configuration                       0x080084ad   Thumb Code    12  sys.o(.text)
    NVIC_PrioGrpCfg                          0x080084b9   Thumb Code    30  sys.o(.text)
    NVIC_Init_                               0x080084d7   Thumb Code   112  sys.o(.text)
    AT24CXX_ReadOneByte                      0x08008559   Thumb Code    88  24cxx.o(.text)
    AT24CXX_WriteOneByte                     0x080085b1   Thumb Code    80  24cxx.o(.text)
    AT24CXX_WriteLenByte                     0x08008601   Thumb Code    42  24cxx.o(.text)
    AT24CXX_ReadLenByte                      0x0800862b   Thumb Code    44  24cxx.o(.text)
    AT24CXX_Check                            0x08008657   Thumb Code    46  24cxx.o(.text)
    AT24CXX_Read                             0x08008685   Thumb Code    34  24cxx.o(.text)
    AT24CXX_Write                            0x080086a7   Thumb Code    36  24cxx.o(.text)
    IIC_Init                                 0x080086cd   Thumb Code    52  iic.o(.text)
    IIC_Start                                0x08008701   Thumb Code    68  iic.o(.text)
    IIC_Stop                                 0x08008745   Thumb Code    66  iic.o(.text)
    IIC_Wait_Ack                             0x08008787   Thumb Code    82  iic.o(.text)
    IIC_Ack                                  0x080087d9   Thumb Code    72  iic.o(.text)
    IIC_NAck                                 0x08008821   Thumb Code    72  iic.o(.text)
    IIC_Send_Byte                            0x08008869   Thumb Code    96  iic.o(.text)
    IIC_Read_Byte                            0x080088c9   Thumb Code    98  iic.o(.text)
    hardware_notice                          0x08008945   Thumb Code    60  kernel_notice.o(.text)
    create_notice                            0x08008981   Thumb Code    96  kernel_notice.o(.text)
    delete_notice                            0x080089e1   Thumb Code    96  kernel_notice.o(.text)
    kernel_notice                            0x08008a41   Thumb Code    88  kernel_notice.o(.text)
    kernel_notice_init                       0x08008a99   Thumb Code    60  kernel_notice.o(.text)
    kernel_load_enter                        0x08008ad9   Thumb Code   238  kernel_ui_api.o(.text)
    kernel_load_exit                         0x08008bc7   Thumb Code    40  kernel_ui_api.o(.text)
    kernel_set_load_rate                     0x08008bef   Thumb Code    48  kernel_ui_api.o(.text)
    kernel_err_report                        0x08008c1f   Thumb Code   232  kernel_ui_api.o(.text)
    kernel_main                              0x08008d25   Thumb Code   140  kernel_main.o(.text)
    kernel_exit                              0x08008df1   Thumb Code    14  thread_main.o(.text)
    thread_main                              0x08008dff   Thumb Code   100  thread_main.o(.text)
    mymemcpy                                 0x08008e69   Thumb Code    26  malloc.o(.text)
    mymemset                                 0x08008e83   Thumb Code    20  malloc.o(.text)
    mem_init                                 0x08008e97   Thumb Code    54  malloc.o(.text)
    mem_perused                              0x08008ecd   Thumb Code    54  malloc.o(.text)
    mem_malloc                               0x08008f03   Thumb Code   162  malloc.o(.text)
    mem_free                                 0x08008fa5   Thumb Code    94  malloc.o(.text)
    myfree                                   0x08009003   Thumb Code    32  malloc.o(.text)
    mymalloc                                 0x08009023   Thumb Code    34  malloc.o(.text)
    myrealloc                                0x08009045   Thumb Code    66  malloc.o(.text)
    file_system_init                         0x08009099   Thumb Code    18  file_operate.o(.text)
    disk_size                                0x080090ab   Thumb Code    18  file_operate.o(.text)
    folder_create                            0x080090bd   Thumb Code    20  file_operate.o(.text)
    folder_rename                            0x080090d1   Thumb Code    24  file_operate.o(.text)
    folder_delete                            0x080090e9   Thumb Code    20  file_operate.o(.text)
    folder_enum_count                        0x080090fd   Thumb Code    48  file_operate.o(.text)
    folder_enum                              0x0800912d   Thumb Code   118  file_operate.o(.text)
    file_create                              0x080091a3   Thumb Code    38  file_operate.o(.text)
    file_delete                              0x080091c9   Thumb Code    14  file_operate.o(.text)
    file_open                                0x080091d7   Thumb Code    26  file_operate.o(.text)
    file_length                              0x080091f1   Thumb Code    10  file_operate.o(.text)
    file_seek                                0x080091fb   Thumb Code   130  file_operate.o(.text)
    file_write                               0x0800927d   Thumb Code    34  file_operate.o(.text)
    file_read                                0x0800929f   Thumb Code    34  file_operate.o(.text)
    file_close                               0x080092c1   Thumb Code    20  file_operate.o(.text)
    clust2sect                               0x08009485   Thumb Code    26  ff.o(.text)
    get_fat                                  0x0800949f   Thumb Code   228  ff.o(.text)
    put_fat                                  0x08009583   Thumb Code   314  ff.o(.text)
    dir_sdi                                  0x08009821   Thumb Code   156  ff.o(.text)
    gen_numname                              0x08009b75   Thumb Code   190  ff.o(.text)
    f_mount                                  0x0800a86d   Thumb Code    60  ff.o(.text)
    f_open                                   0x0800a8a9   Thumb Code   376  ff.o(.text)
    f_read                                   0x0800aa21   Thumb Code   472  ff.o(.text)
    f_write                                  0x0800abf9   Thumb Code   540  ff.o(.text)
    f_sync                                   0x0800ae15   Thumb Code   174  ff.o(.text)
    f_close                                  0x0800aec3   Thumb Code    22  ff.o(.text)
    f_lseek                                  0x0800aed9   Thumb Code   730  ff.o(.text)
    f_opendir                                0x0800b1b3   Thumb Code   138  ff.o(.text)
    f_readdir                                0x0800b23d   Thumb Code   110  ff.o(.text)
    f_stat                                   0x0800b2ab   Thumb Code    82  ff.o(.text)
    f_getfree                                0x0800b2fd   Thumb Code   260  ff.o(.text)
    f_truncate                               0x0800b401   Thumb Code   160  ff.o(.text)
    f_unlink                                 0x0800b4a1   Thumb Code   192  ff.o(.text)
    f_mkdir                                  0x0800b561   Thumb Code   384  ff.o(.text)
    f_chmod                                  0x0800b6e1   Thumb Code   112  ff.o(.text)
    f_utime                                  0x0800b751   Thumb Code   110  ff.o(.text)
    f_rename                                 0x0800b7bf   Thumb Code   302  ff.o(.text)
    f_mkfs                                   0x0800b8ed   Thumb Code  1582  ff.o(.text)
    f_gets                                   0x0800bf1b   Thumb Code    78  ff.o(.text)
    f_putc                                   0x0800bf69   Thumb Code    38  ff.o(.text)
    f_puts                                   0x0800bf8f   Thumb Code    40  ff.o(.text)
    f_printf                                 0x0800bfb7   Thumb Code   704  ff.o(.text)
    disk_initialize                          0x0800c277   Thumb Code    40  diskio.o(.text)
    disk_status                              0x0800c29f   Thumb Code     6  diskio.o(.text)
    disk_read                                0x0800c2a5   Thumb Code    62  diskio.o(.text)
    disk_write                               0x0800c2e3   Thumb Code    92  diskio.o(.text)
    disk_ioctl                               0x0800c33f   Thumb Code    58  diskio.o(.text)
    get_fattime                              0x0800c379   Thumb Code     4  diskio.o(.text)
    ff_memalloc                              0x0800c37d   Thumb Code    14  diskio.o(.text)
    ff_memfree                               0x0800c38b   Thumb Code    14  diskio.o(.text)
    ff_convert                               0x0800c399   Thumb Code   116  cc936.o(.text)
    ff_wtoupper                              0x0800c40d   Thumb Code    46  cc936.o(.text)
    exfuns_init                              0x0800c44d   Thumb Code    90  exfuns.o(.text)
    char_upper                               0x0800c4a7   Thumb Code    26  exfuns.o(.text)
    f_typetell                               0x0800c4c1   Thumb Code   188  exfuns.o(.text)
    exf_getfree                              0x0800c57d   Thumb Code    74  exfuns.o(.text)
    graphics_background_clean                0x0800c5dd   Thumb Code    38  graphics_background.o(.text)
    graphics_background_init                 0x0800c603   Thumb Code     8  graphics_background.o(.text)
    graphics_background_load                 0x0800c60b   Thumb Code    12  graphics_background.o(.text)
    graphics_draw_background                 0x0800c617   Thumb Code     8  graphics_background.o(.text)
    graphics_draw_bitmap                     0x0800c94f   Thumb Code   104  graphics_bitmap.o(.text)
    graphics_get_bitmap                      0x0800c9b7   Thumb Code    28  graphics_bitmap.o(.text)
    graphics_draw_font                       0x0800c9d5   Thumb Code    58  graphics_font.o(.text)
    graphics_draw_font_string                0x0800ca0f   Thumb Code    80  graphics_font.o(.text)
    create_widget                            0x0800ca65   Thumb Code   500  graphics_widget.o(.text)
    delete_widget                            0x0800cc59   Thumb Code   170  graphics_widget.o(.text)
    set_label_multiline                      0x0800ceb9   Thumb Code   174  graphics_widget.o(.text)
    set_label_caption                        0x0800cf67   Thumb Code   264  graphics_widget.o(.text)
    set_button_click_recall                  0x0800d1fb   Thumb Code    48  graphics_widget.o(.text)
    set_button_caption                       0x0800d22b   Thumb Code   228  graphics_widget.o(.text)
    set_progress_max_value                   0x0800d473   Thumb Code   176  graphics_widget.o(.text)
    set_progress_value                       0x0800d523   Thumb Code   180  graphics_widget.o(.text)
    set_picture_bitmap                       0x0800d61f   Thumb Code   308  graphics_widget.o(.text)
    set_picture_empty                        0x0800d753   Thumb Code   100  graphics_widget.o(.text)
    set_picture_click_recall                 0x0800d7b7   Thumb Code    50  graphics_widget.o(.text)
    draw_widget                              0x0800d7e9   Thumb Code   274  graphics_widget.o(.text)
    draw_line                                0x0800d8fb   Thumb Code    70  graphics_widget.o(.text)
    draw_circle                              0x0800d941   Thumb Code    68  graphics_widget.o(.text)
    set_widget_background_color              0x0800d985   Thumb Code    60  graphics_widget.o(.text)
    set_widget_foreground_color              0x0800d9c1   Thumb Code    60  graphics_widget.o(.text)
    graphics_window_init                     0x0800dc93   Thumb Code    28  graphics_window.o(.text)
    create_window                            0x0800dcaf   Thumb Code   106  graphics_window.o(.text)
    refresh_window_title                     0x0800dd19   Thumb Code   204  graphics_window.o(.text)
    refresh_window_background                0x0800dde5   Thumb Code   194  graphics_window.o(.text)
    refresh_window                           0x0800dea7   Thumb Code    62  graphics_window.o(.text)
    get_window_front                         0x0800dee5   Thumb Code     6  graphics_window.o(.text)
    set_window_front                         0x0800deeb   Thumb Code    22  graphics_window.o(.text)
    show_window                              0x0800df01   Thumb Code   552  graphics_window.o(.text)
    set_window_show_title                    0x0800e129   Thumb Code    60  graphics_window.o(.text)
    set_window_title                         0x0800e165   Thumb Code   132  graphics_window.o(.text)
    set_window_background_color              0x0800e1e9   Thumb Code    68  graphics_window.o(.text)
    close_window                             0x0800e22d   Thumb Code   264  graphics_window.o(.text)
    notice_window                            0x0800e335   Thumb Code  1146  graphics_window.o(.text)
    messagebox                               0x0800e7d7   Thumb Code  1054  graphics_window.o(.text)
    graphics_init                            0x0800ebf5   Thumb Code    12  graphics_window.o(.text)
    test_button_click_event                  0x0800ec01   Thumb Code    44  graphics_window.o(.text)
    test_picture_click_event                 0x0800ec2d   Thumb Code    18  graphics_window.o(.text)
    test_notics_window                       0x0800ec3f   Thumb Code    42  graphics_window.o(.text)
    window_test                              0x0800ec69   Thumb Code   378  graphics_window.o(.text)
    gsm_reset                                0x0800eecd   Thumb Code    10  kernel_expand_gsm.o(.text)
    gsm_init                                 0x0800eed7   Thumb Code     8  kernel_expand_gsm.o(.text)
    gsm_notice                               0x0800eee9   Thumb Code   144  kernel_expand_gsm.o(.text)
    gsm_call                                 0x0800ef79   Thumb Code    50  kernel_expand_gsm.o(.text)
    gsm_handup                               0x0800efab   Thumb Code    10  kernel_expand_gsm.o(.text)
    gsm_answer                               0x0800efb5   Thumb Code    10  kernel_expand_gsm.o(.text)
    system_desktop_init                      0x0800f015   Thumb Code    54  system_desktop.o(.text)
    system_desktop_title                     0x0800f0b9   Thumb Code    26  system_desktop_ui.o(.text)
    system_desktop_get_window_handle         0x0800f17b   Thumb Code     6  system_desktop_ui.o(.text)
    system_desktop_fresh_app_list            0x0800f181   Thumb Code   512  system_desktop_ui.o(.text)
    system_desktop_ui_init                   0x0800f381   Thumb Code   736  system_desktop_ui.o(.text)
    system_desktop_ui_notice                 0x0800f661   Thumb Code    30  system_desktop_ui.o(.text)
    system_desktop_application_execute_init  0x0800f699   Thumb Code   108  system_desktop_application_execute.o(.text)
    system_desktop_application_execute_widget_notice 0x0800f705   Thumb Code     2  system_desktop_application_execute.o(.text)
    clean_script                             0x08010f5b   Thumb Code    60  script_hoster.o(.text)
    load_script                              0x08010f97   Thumb Code   236  script_hoster.o(.text)
    clean_space                              0x080110a1   Thumb Code   188  script_resolve.o(.text)
    clean_escape                             0x0801115d   Thumb Code    80  script_resolve.o(.text)
    is_string                                0x080111ad   Thumb Code    68  script_resolve.o(.text)
    clean_string_flag                        0x080111f1   Thumb Code    60  script_resolve.o(.text)
    string_change_low                        0x0801122d   Thumb Code    50  script_resolve.o(.text)
    string_get_space_left                    0x0801125f   Thumb Code    50  script_resolve.o(.text)
    string_get_equal_left                    0x08011291   Thumb Code    50  script_resolve.o(.text)
    string_get_equal_right                   0x080112c3   Thumb Code    54  script_resolve.o(.text)
    string_move_left                         0x080112f9   Thumb Code    40  script_resolve.o(.text)
    is_valid_variables_name                  0x08011321   Thumb Code    70  script_resolve.o(.text)
    is_char                                  0x08011367   Thumb Code    34  script_resolve.o(.text)
    is_float                                 0x08011389   Thumb Code    62  script_resolve.o(.text)
    is_number                                0x080113c7   Thumb Code    50  script_resolve.o(.text)
    is_valid_term                            0x080113f9   Thumb Code   324  script_resolve.o(.text)
    is_valid_function_expression             0x080115bb   Thumb Code    74  script_resolve.o(.text)
    is_valid_calculate                       0x08011605   Thumb Code   286  script_resolve.o(.text)
    number_to_string                         0x08011723   Thumb Code    18  script_resolve.o(.text)
    string_to_number                         0x08011735   Thumb Code   142  script_resolve.o(.text)
    string_to_float                          0x080117c3   Thumb Code    78  script_resolve.o(.text)
    resolve_code_line_type                   0x0801186f   Thumb Code   156  script_syntax.o(.text)
    resolve_variables_declare                0x0801190b   Thumb Code   374  script_syntax.o(.text)
    check_syntax_line                        0x08011a81   Thumb Code   942  script_syntax.o(.text)
    resolve_if_determine                     0x08011e2f   Thumb Code   204  script_syntax.o(.text)
    resolve_while_loop                       0x08011efb   Thumb Code   162  script_syntax.o(.text)
    resolve_for_loop                         0x08011f9d   Thumb Code   378  script_syntax.o(.text)
    resolve_call                             0x08012117   Thumb Code   182  script_syntax.o(.text)
    resolve_assignment                       0x080121cd   Thumb Code   402  script_syntax.o(.text)
    telephone_dial_init                      0x0801252d   Thumb Code   284  telephone_ui.o(.text)
    telephone_init                           0x080126cf   Thumb Code   966  telephone_ui.o(.text)
    alarm_notice                             0x08012c55   Thumb Code   136  alarm_ui.o(.text)
    alarm_exit                               0x080135bf   Thumb Code     2  alarm_ui.o(.text)
    alarm_init                               0x080135eb   Thumb Code   328  alarm_ui.o(.text)
    malloc                                   0x080137f1   Thumb Code    94  h1_alloc.o(.text)
    free                                     0x0801384f   Thumb Code    78  h1_free.o(.text)
    __aeabi_ldivmod                          0x0801389d   Thumb Code     0  llsdiv.o(.text)
    _ll_sdiv                                 0x0801389d   Thumb Code    72  llsdiv.o(.text)
    __2sprintf                               0x080138e5   Thumb Code    34  noretval__2sprintf.o(.text)
    _printf_pre_padding                      0x0801390d   Thumb Code    46  _printf_pad.o(.text)
    _printf_post_padding                     0x0801393b   Thumb Code    36  _printf_pad.o(.text)
    _printf_str                              0x0801395f   Thumb Code    82  _printf_str.o(.text)
    _printf_int_dec                          0x080139b1   Thumb Code   102  _printf_dec.o(.text)
    __printf                                 0x08013a29   Thumb Code   390  __printf_flags_ss_wp.o(.text)
    strcpy                                   0x08013bb5   Thumb Code    72  strcpy.o(.text)
    strlen                                   0x08013bfd   Thumb Code    62  strlen.o(.text)
    strcat                                   0x08013c3b   Thumb Code    24  strcat.o(.text)
    __aeabi_memcpy                           0x08013c53   Thumb Code     0  rt_memcpy_v6.o(.text)
    __rt_memcpy                              0x08013c53   Thumb Code   138  rt_memcpy_v6.o(.text)
    _memcpy_lastbytes                        0x08013cb9   Thumb Code     0  rt_memcpy_v6.o(.text)
    __aeabi_memcpy4                          0x08013cdd   Thumb Code     0  rt_memcpy_w.o(.text)
    __aeabi_memcpy8                          0x08013cdd   Thumb Code     0  rt_memcpy_w.o(.text)
    __rt_memcpy_w                            0x08013cdd   Thumb Code   100  rt_memcpy_w.o(.text)
    _memcpy_lastbytes_aligned                0x08013d25   Thumb Code     0  rt_memcpy_w.o(.text)
    __aeabi_memset                           0x08013d41   Thumb Code    16  aeabi_memset.o(.text)
    __aeabi_memclr                           0x08013d51   Thumb Code     0  rt_memclr.o(.text)
    __rt_memclr                              0x08013d51   Thumb Code    68  rt_memclr.o(.text)
    _memset                                  0x08013d55   Thumb Code     0  rt_memclr.o(.text)
    __aeabi_memclr4                          0x08013d95   Thumb Code     0  rt_memclr_w.o(.text)
    __aeabi_memclr8                          0x08013d95   Thumb Code     0  rt_memclr_w.o(.text)
    __rt_memclr_w                            0x08013d95   Thumb Code    78  rt_memclr_w.o(.text)
    _memset_w                                0x08013d99   Thumb Code     0  rt_memclr_w.o(.text)
    strcmp                                   0x08013de5   Thumb Code   128  strcmpv7m.o(.text)
    __use_two_region_memory                  0x08013e65   Thumb Code     2  heapauxi.o(.text)
    __rt_heap_escrow                         0x08013e67   Thumb Code     2  heapauxi.o(.text)
    __rt_heap_expand                         0x08013e69   Thumb Code     2  heapauxi.o(.text)
    __rt_heap_descriptor                     0x08013e6d   Thumb Code     8  rt_heap_descriptor_intlibspace.o(.text)
    __use_no_heap                            0x08013e75   Thumb Code     2  hguard.o(.text)
    __heap$guard                             0x08013e77   Thumb Code     2  hguard.o(.text)
    _terminate_user_alloc                    0x08013e79   Thumb Code     2  init_alloc.o(.text)
    _init_user_alloc                         0x08013e7b   Thumb Code     2  init_alloc.o(.text)
    __Heap_Full                              0x08013e7d   Thumb Code    34  init_alloc.o(.text)
    __Heap_Broken                            0x08013e9f   Thumb Code     6  init_alloc.o(.text)
    _init_alloc                              0x08013ea5   Thumb Code    94  init_alloc.o(.text)
    __Heap_Initialize                        0x08013f03   Thumb Code    10  h1_init.o(.text)
    __Heap_DescSize                          0x08013f0d   Thumb Code     4  h1_init.o(.text)
    __aeabi_uldivmod                         0x08013f11   Thumb Code     0  lludivv7m.o(.text)
    _ll_udiv                                 0x08013f11   Thumb Code   238  lludivv7m.o(.text)
    __read_errno                             0x08013fff   Thumb Code    10  _rserrno.o(.text)
    __set_errno                              0x08014009   Thumb Code    12  _rserrno.o(.text)
    _printf_int_common                       0x08014015   Thumb Code   184  _printf_intcommon.o(.text)
    _printf_char_common                      0x080140d7   Thumb Code    32  _printf_char_common.o(.text)
    _sputc                                   0x080140fd   Thumb Code    10  _sputc.o(.text)
    _printf_cs_common                        0x08014107   Thumb Code    20  _printf_char.o(.text)
    _printf_char                             0x0801411b   Thumb Code    16  _printf_char.o(.text)
    _printf_string                           0x0801412b   Thumb Code     8  _printf_char.o(.text)
    __user_libspace                          0x08014135   Thumb Code     8  libspace.o(.text)
    __user_perproc_libspace                  0x08014135   Thumb Code     0  libspace.o(.text)
    __user_perthread_libspace                0x08014135   Thumb Code     0  libspace.o(.text)
    __aeabi_errno_addr                       0x0801413d   Thumb Code     8  rt_errno_addr_intlibspace.o(.text)
    __errno$intlibspace                      0x0801413d   Thumb Code     0  rt_errno_addr_intlibspace.o(.text)
    __rt_errno_addr$intlibspace              0x0801413d   Thumb Code     0  rt_errno_addr_intlibspace.o(.text)
    __Heap_ProvideMemory                     0x08014145   Thumb Code    52  h1_extend.o(.text)
    __rt_SIGRTMEM                            0x08014179   Thumb Code    14  defsig_rtmem_outer.o(.text)
    __I$use$semihosting                      0x08014187   Thumb Code     0  use_no_semi.o(.text)
    __use_no_semihosting_swi                 0x08014187   Thumb Code     2  use_no_semi.o(.text)
    __semihosting_library_function           0x08014189   Thumb Code     0  indicate_semi.o(.text)
    __user_setup_stackheap                   0x08014189   Thumb Code    74  sys_stackheap_outer.o(.text)
    exit                                     0x080141d3   Thumb Code    12  exit.o(.text)
    __sig_exit                               0x080141df   Thumb Code    10  defsig_exit.o(.text)
    __rt_SIGRTMEM_inner                      0x080141e9   Thumb Code    22  defsig_rtmem_inner.o(.text)
    _sys_exit                                0x08014239   Thumb Code     8  sys_exit.o(.text)
    __default_signal_display                 0x08014245   Thumb Code    50  defsig_general.o(.text)
    _ttywrch                                 0x08014277   Thumb Code    14  sys_wrch.o(.text)
    __ARM_fpclassify                         0x08014285   Thumb Code    40  fpclassify.o(i.__ARM_fpclassify)
    __kernel_poly                            0x080142ad   Thumb Code   170  poly.o(i.__kernel_poly)
    __mathlib_dbl_underflow                  0x08014359   Thumb Code    10  dunder.o(i.__mathlib_dbl_underflow)
    _is_digit                                0x08014369   Thumb Code    14  __printf_wp.o(i._is_digit)
    pow                                      0x08014379   Thumb Code  2510  pow.o(i.pow)
    sqrt                                     0x08014d59   Thumb Code    76  sqrt.o(i.sqrt)
    __aeabi_dadd                             0x08014da5   Thumb Code     0  daddsub_clz.o(x$fpl$dadd)
    _dadd                                    0x08014da5   Thumb Code   332  daddsub_clz.o(x$fpl$dadd)
    __fpl_dcheck_NaN1                        0x08014ef5   Thumb Code    10  dcheck1.o(x$fpl$dcheck1)
    __fpl_dcmp_Inf                           0x08014f05   Thumb Code    24  dcmpi.o(x$fpl$dcmpinf)
    __aeabi_ddiv                             0x08014f1d   Thumb Code     0  ddiv.o(x$fpl$ddiv)
    _ddiv                                    0x08014f1d   Thumb Code   552  ddiv.o(x$fpl$ddiv)
    __aeabi_d2iz                             0x080151cd   Thumb Code     0  dfix.o(x$fpl$dfix)
    _dfix                                    0x080151cd   Thumb Code    94  dfix.o(x$fpl$dfix)
    __aeabi_d2uiz                            0x0801522d   Thumb Code     0  dfixu.o(x$fpl$dfixu)
    _dfixu                                   0x0801522d   Thumb Code    90  dfixu.o(x$fpl$dfixu)
    __aeabi_i2d                              0x08015287   Thumb Code     0  dflt_clz.o(x$fpl$dflt)
    _dflt                                    0x08015287   Thumb Code    46  dflt_clz.o(x$fpl$dflt)
    __aeabi_ui2d                             0x080152b5   Thumb Code     0  dflt_clz.o(x$fpl$dfltu)
    _dfltu                                   0x080152b5   Thumb Code    38  dflt_clz.o(x$fpl$dfltu)
    __aeabi_cdcmple                          0x080152dd   Thumb Code     0  dleqf.o(x$fpl$dleqf)
    _dcmple                                  0x080152dd   Thumb Code   120  dleqf.o(x$fpl$dleqf)
    __fpl_dcmple_InfNaN                      0x0801533f   Thumb Code     0  dleqf.o(x$fpl$dleqf)
    __aeabi_dmul                             0x08015355   Thumb Code     0  dmul.o(x$fpl$dmul)
    _dmul                                    0x08015355   Thumb Code   332  dmul.o(x$fpl$dmul)
    __fpl_dnaninf                            0x080154a9   Thumb Code   156  dnaninf.o(x$fpl$dnaninf)
    __fpl_dretinf                            0x08015545   Thumb Code    12  dretinf.o(x$fpl$dretinf)
    __aeabi_cdrcmple                         0x08015551   Thumb Code     0  drleqf.o(x$fpl$drleqf)
    _drcmple                                 0x08015551   Thumb Code   108  drleqf.o(x$fpl$drleqf)
    __aeabi_drsub                            0x080155bd   Thumb Code     0  daddsub_clz.o(x$fpl$drsb)
    _drsb                                    0x080155bd   Thumb Code    22  daddsub_clz.o(x$fpl$drsb)
    _dsqrt                                   0x080155d5   Thumb Code   456  dsqrt_noumaal.o(x$fpl$dsqrt)
    __aeabi_dsub                             0x080157a1   Thumb Code     0  daddsub_clz.o(x$fpl$dsub)
    _dsub                                    0x080157a1   Thumb Code   464  daddsub_clz.o(x$fpl$dsub)
    __aeabi_f2d                              0x08015975   Thumb Code     0  f2d.o(x$fpl$f2d)
    _f2d                                     0x08015975   Thumb Code    86  f2d.o(x$fpl$f2d)
    __aeabi_fadd                             0x080159cd   Thumb Code     0  faddsub_clz.o(x$fpl$fadd)
    _fadd                                    0x080159cd   Thumb Code   196  faddsub_clz.o(x$fpl$fadd)
    __fpl_fcmp_Inf                           0x08015a91   Thumb Code    24  fcmpi.o(x$fpl$fcmpinf)
    __aeabi_fdiv                             0x08015aa9   Thumb Code     0  fdiv.o(x$fpl$fdiv)
    _fdiv                                    0x08015aa9   Thumb Code   384  fdiv.o(x$fpl$fdiv)
    __aeabi_cfcmpeq                          0x08015c2d   Thumb Code     0  feqf.o(x$fpl$feqf)
    _fcmpeq                                  0x08015c2d   Thumb Code   104  feqf.o(x$fpl$feqf)
    __aeabi_f2iz                             0x08015c95   Thumb Code     0  ffix.o(x$fpl$ffix)
    _ffix                                    0x08015c95   Thumb Code    54  ffix.o(x$fpl$ffix)
    __aeabi_f2uiz                            0x08015ccd   Thumb Code     0  ffixu.o(x$fpl$ffixu)
    _ffixu                                   0x08015ccd   Thumb Code    62  ffixu.o(x$fpl$ffixu)
    __aeabi_i2f                              0x08015d0d   Thumb Code     0  fflt_clz.o(x$fpl$fflt)
    _fflt                                    0x08015d0d   Thumb Code    48  fflt_clz.o(x$fpl$fflt)
    __aeabi_ui2f                             0x08015d3d   Thumb Code     0  fflt_clz.o(x$fpl$ffltu)
    _ffltu                                   0x08015d3d   Thumb Code    38  fflt_clz.o(x$fpl$ffltu)
    __aeabi_cfcmple                          0x08015d65   Thumb Code     0  fleqf.o(x$fpl$fleqf)
    _fcmple                                  0x08015d65   Thumb Code   104  fleqf.o(x$fpl$fleqf)
    __fpl_fcmple_InfNaN                      0x08015db7   Thumb Code     0  fleqf.o(x$fpl$fleqf)
    __aeabi_fmul                             0x08015dcd   Thumb Code     0  fmul.o(x$fpl$fmul)
    _fmul                                    0x08015dcd   Thumb Code   258  fmul.o(x$fpl$fmul)
    __fpl_fnaninf                            0x08015ecf   Thumb Code   140  fnaninf.o(x$fpl$fnaninf)
    __fpl_fretinf                            0x08015f5b   Thumb Code    10  fretinf.o(x$fpl$fretinf)
    __aeabi_cfrcmple                         0x08015f65   Thumb Code     0  frleqf.o(x$fpl$frleqf)
    _frcmple                                 0x08015f65   Thumb Code    98  frleqf.o(x$fpl$frleqf)
    __aeabi_fsub                             0x08015fc9   Thumb Code     0  faddsub_clz.o(x$fpl$fsub)
    _fsub                                    0x08015fc9   Thumb Code   234  faddsub_clz.o(x$fpl$fsub)
    __fpl_return_NaN                         0x080160b3   Thumb Code   100  retnan.o(x$fpl$retnan)
    __ARM_scalbn                             0x08016117   Thumb Code    92  scalbn.o(x$fpl$scalbn)
    __fpl_cmpreturn                          0x08016173   Thumb Code    48  trapv.o(x$fpl$trapveneer)
    __I$use$fp                               0x080161a2   Number         0  usenofp.o(x$fpl$usenofp)
    asc2_1206                                0x080161f8   Data        1140  lcd_device_api.o(.constdata)
    asc2_1608                                0x0801666c   Data        1520  lcd_device_api.o(.constdata)
    table_week                               0x08016c5c   Data          12  rtc_device_api.o(.constdata)
    mon_table                                0x08016c68   Data          12  rtc_device_api.o(.constdata)
    kernel_logo                              0x08016c74   Data       30054  kernel_ui_api.o(.constdata)
    memtblsize                               0x0801e258   Data           8  malloc.o(.constdata)
    memblksize                               0x0801e260   Data           8  malloc.o(.constdata)
    memsize                                  0x0801e268   Data           8  malloc.o(.constdata)
    telephone_icon                           0x0804a268   Data       30056  system_desktop_ui.o(.constdata)
    alarm_icon                               0x080517d0   Data       30054  system_desktop_ui.o(.constdata)
    __mathlib_zero                           0x08058dd0   Data           8  qnan.o(.constdata)
    Region$$Table$$Base                      0x08058eac   Number         0  anon$$obj.o(Region$$Table)
    Region$$Table$$Limit                     0x08058ecc   Number         0  anon$$obj.o(Region$$Table)
    SystemCoreClock                          0x20000014   Data           4  system_stm32f10x.o(.data)
    AHBPrescTable                            0x20000018   Data          16  system_stm32f10x.o(.data)
    power_stat                               0x20000028   Data           1  power_api.o(.data)
    SPI_FLASH_TYPE                           0x2000002c   Data           4  flash_device_api.o(.data)
    TransferError                            0x2000003a   Data           1  sdio_sdcard.o(.data)
    TransferEnd                              0x2000003b   Data           1  sdio_sdcard.o(.data)
    uart_recv_buffer_length                  0x2000003c   Data           4  uart_api.o(.data)
    POINT_COLOR                              0x20000384   Data           2  lcd_device_api.o(.data)
    BACK_COLOR                               0x20000386   Data           2  lcd_device_api.o(.data)
    tp_dev                                   0x20000388   Data          40  lcd_device_touch.o(.data)
    CMD_RDX                                  0x200003b0   Data           1  lcd_device_touch.o(.data)
    CMD_RDY                                  0x200003b1   Data           1  lcd_device_touch.o(.data)
    TP_REMIND_MSG_TBL                        0x200003b4   Data           4  lcd_device_touch.o(.data)
    load_rate                                0x200003c4   Data           4  kernel_ui_api.o(.data)
    kernel_load_window                       0x200003c8   Data           4  kernel_ui_api.o(.data)
    progress_load_rate_handle                0x200003cc   Data           4  kernel_ui_api.o(.data)
    kernel_power                             0x200003d0   Data           1  thread_main.o(.data)
    mallco_dev                               0x200003d4   Data          28  malloc.o(.data)
    FILE_TYPE_TBL                            0x200003fc   Data         312  exfuns.o(.data)
    fs                                       0x20000534   Data           8  exfuns.o(.data)
    file                                     0x2000053c   Data           4  exfuns.o(.data)
    ftemp                                    0x20000540   Data           4  exfuns.o(.data)
    br                                       0x20000544   Data           4  exfuns.o(.data)
    bw                                       0x20000548   Data           4  exfuns.o(.data)
    fatbuf                                   0x2000054c   Data           4  exfuns.o(.data)
    window_front                             0x20000550   Data           4  graphics_window.o(.data)
    click_code                               0x20000554   Data           1  graphics_window.o(.data)
    create_window_handle                     0x20000558   Data           4  graphics_window.o(.data)
    label_handle                             0x2000055c   Data           4  graphics_window.o(.data)
    button_handle                            0x20000560   Data           4  graphics_window.o(.data)
    progress_handle                          0x20000564   Data           4  graphics_window.o(.data)
    picture_handle                           0x20000568   Data           4  graphics_window.o(.data)
    click_index                              0x2000056c   Data           4  graphics_window.o(.data)
    desktop_handle                           0x20000570   Data           4  system_desktop.o(.data)
    system_desktop_handle                    0x20000574   Data           4  system_desktop_ui.o(.data)
    script_data                              0x20000578   Data           4  script_hoster.o(.data)
    script_data_length                       0x2000057c   Data           4  script_hoster.o(.data)
    script_stack                             0x20000580   Data           4  script_hoster.o(.data)
    script_stack_size                        0x20000584   Data           4  script_hoster.o(.data)
    script_line                              0x20000588   Data           4  script_hoster.o(.data)
    script_code_line                         0x2000058c   Data           4  script_hoster.o(.data)
    telephone_window_handle                  0x20000590   Data           4  telephone_ui.o(.data)
    phone_number_laben_handle                0x20000594   Data           4  telephone_ui.o(.data)
    telephone_dial_window_handle             0x20000598   Data           4  telephone_ui.o(.data)
    ring_button_handle                       0x2000059c   Data           4  telephone_ui.o(.data)
    SPI_FLASH_BUFFER                         0x20000600   Data        4096  flash_device_api.o(.bss)
    SDCardInfo                               0x20001620   Data          88  sdio_sdcard.o(.bss)
    SDIO_DATA_BUFFER                         0x20001678   Data         512  sdio_sdcard.o(.bss)
    uart_recv_buffer                         0x20001878   Data         256  uart_api.o(.bss)
    lcddev                                   0x20001978   Data          10  lcd_device_api.o(.bss)
    time_alarm                               0x20001984   Data          64  time_api.o(.bss)
    calendar                                 0x200019c4   Data          10  rtc_device_api.o(.bss)
    mem1base                                 0x20001a74   Data       40960  malloc.o(.bss)
    mem1mapbase                              0x2000ba74   Data        2560  malloc.o(.bss)
    window_list                              0x2000c474   Data        4708  graphics_window.o(.bss)
    label                                    0x2000d6d8   Data          44  graphics_window.o(.bss)
    button                                   0x2000d704   Data          44  graphics_window.o(.bss)
    progress                                 0x2000d730   Data          44  graphics_window.o(.bss)
    picture                                  0x2000d75c   Data          44  graphics_window.o(.bss)
    ring_number_buffer                       0x2000d788   Data          20  kernel_expand_gsm.o(.bss)
    app_list                                 0x2000d79c   Data         176  system_desktop_ui.o(.bss)
    globel_variables_table                   0x2000d84c   Data        2052  script_hoster.o(.bss)
    call_phone_number_buffer                 0x2000e050   Data          20  telephone_ui.o(.bss)
    __libspace_start                         0x2000e078   Data          96  libspace.o(.bss)
    __temporary_stack_top$libspace           0x2000e0d8   Data           0  libspace.o(.bss)
    mem2base                                 0x68000000   Data       204800  malloc.o(.ARM.__AT_0x68000000)
    mem2mapbase                              0x68032000   Data       12800  malloc.o(.ARM.__AT_0x68032000)



==============================================================================

Memory Map of the image

  Image Entry point : 0x08000131

  Load Region LR_IROM1 (Base: 0x08000000, Size: 0x000594b4, Max: 0x00080000, ABSOLUTE, COMPRESSED[0x00058f94])

    Execution Region ER_IROM1 (Base: 0x08000000, Size: 0x00058ecc, Max: 0x00080000, ABSOLUTE)

    Base Addr    Size         Type   Attr      Idx    E Section Name        Object

    0x08000000   0x00000130   Data   RO           19    RESET               startup_stm32f10x_hd.o
    0x08000130   0x00000008   Code   RO         1557  * !!!main             c_w.l(__main.o)
    0x08000138   0x00000034   Code   RO         1967    !!!scatter          c_w.l(__scatter.o)
    0x0800016c   0x0000005a   Code   RO         1965    !!dczerorl2         c_w.l(__dczerorl2.o)
    0x080001c6   0x00000002   PAD
    0x080001c8   0x0000001c   Code   RO         1969    !!handler_zi        c_w.l(__scatter_zi.o)
    0x080001e4   0x00000000   Code   RO         1536    .ARM.Collect$$_printf_percent$$00000000  c_w.l(_printf_percent.o)
    0x080001e4   0x00000006   Code   RO         1535    .ARM.Collect$$_printf_percent$$00000009  c_w.l(_printf_d.o)
    0x080001ea   0x00000006   Code   RO         1534    .ARM.Collect$$_printf_percent$$00000014  c_w.l(_printf_s.o)
    0x080001f0   0x00000004   Code   RO         1683    .ARM.Collect$$_printf_percent$$00000017  c_w.l(_printf_percent_end.o)
    0x080001f4   0x00000002   Code   RO         1873    .ARM.Collect$$libinit$$00000000  c_w.l(libinit.o)
    0x080001f6   0x00000000   Code   RO         1693    .ARM.Collect$$libinit$$00000002  c_w.l(libinit2.o)
    0x080001f6   0x00000008   Code   RO         1694    .ARM.Collect$$libinit$$00000003  c_w.l(libinit2.o)
    0x080001fe   0x00000000   Code   RO         1696    .ARM.Collect$$libinit$$00000008  c_w.l(libinit2.o)
    0x080001fe   0x00000000   Code   RO         1698    .ARM.Collect$$libinit$$0000000A  c_w.l(libinit2.o)
    0x080001fe   0x00000000   Code   RO         1700    .ARM.Collect$$libinit$$0000000C  c_w.l(libinit2.o)
    0x080001fe   0x00000000   Code   RO         1703    .ARM.Collect$$libinit$$0000000F  c_w.l(libinit2.o)
    0x080001fe   0x00000000   Code   RO         1705    .ARM.Collect$$libinit$$00000011  c_w.l(libinit2.o)
    0x080001fe   0x00000000   Code   RO         1707    .ARM.Collect$$libinit$$00000013  c_w.l(libinit2.o)
    0x080001fe   0x00000000   Code   RO         1709    .ARM.Collect$$libinit$$00000015  c_w.l(libinit2.o)
    0x080001fe   0x00000000   Code   RO         1711    .ARM.Collect$$libinit$$00000017  c_w.l(libinit2.o)
    0x080001fe   0x00000000   Code   RO         1713    .ARM.Collect$$libinit$$00000019  c_w.l(libinit2.o)
    0x080001fe   0x00000000   Code   RO         1715    .ARM.Collect$$libinit$$0000001B  c_w.l(libinit2.o)
    0x080001fe   0x00000000   Code   RO         1717    .ARM.Collect$$libinit$$0000001D  c_w.l(libinit2.o)
    0x080001fe   0x00000000   Code   RO         1719    .ARM.Collect$$libinit$$0000001F  c_w.l(libinit2.o)
    0x080001fe   0x00000000   Code   RO         1721    .ARM.Collect$$libinit$$00000021  c_w.l(libinit2.o)
    0x080001fe   0x00000000   Code   RO         1723    .ARM.Collect$$libinit$$00000023  c_w.l(libinit2.o)
    0x080001fe   0x00000000   Code   RO         1727    .ARM.Collect$$libinit$$0000002A  c_w.l(libinit2.o)
    0x080001fe   0x00000000   Code   RO         1729    .ARM.Collect$$libinit$$0000002C  c_w.l(libinit2.o)
    0x080001fe   0x00000000   Code   RO         1731    .ARM.Collect$$libinit$$0000002E  c_w.l(libinit2.o)
    0x080001fe   0x00000000   Code   RO         1733    .ARM.Collect$$libinit$$00000030  c_w.l(libinit2.o)
    0x080001fe   0x00000002   Code   RO         1734    .ARM.Collect$$libinit$$00000031  c_w.l(libinit2.o)
    0x08000200   0x00000002   Code   RO         1962    .ARM.Collect$$libshutdown$$00000000  c_w.l(libshutdown.o)
    0x08000202   0x00000000   Code   RO         1876    .ARM.Collect$$libshutdown$$00000003  c_w.l(libshutdown2.o)
    0x08000202   0x00000000   Code   RO         1879    .ARM.Collect$$libshutdown$$00000006  c_w.l(libshutdown2.o)
    0x08000202   0x00000000   Code   RO         1882    .ARM.Collect$$libshutdown$$00000009  c_w.l(libshutdown2.o)
    0x08000202   0x00000000   Code   RO         1884    .ARM.Collect$$libshutdown$$0000000B  c_w.l(libshutdown2.o)
    0x08000202   0x00000000   Code   RO         1887    .ARM.Collect$$libshutdown$$0000000E  c_w.l(libshutdown2.o)
    0x08000202   0x00000002   Code   RO         1888    .ARM.Collect$$libshutdown$$0000000F  c_w.l(libshutdown2.o)
    0x08000204   0x00000000   Code   RO         1643    .ARM.Collect$$rtentry$$00000000  c_w.l(rtentry.o)
    0x08000204   0x00000000   Code   RO         1765    .ARM.Collect$$rtentry$$00000002  c_w.l(rtentry2.o)
    0x08000204   0x00000006   Code   RO         1777    .ARM.Collect$$rtentry$$00000004  c_w.l(rtentry4.o)
    0x0800020a   0x00000000   Code   RO         1767    .ARM.Collect$$rtentry$$00000009  c_w.l(rtentry2.o)
    0x0800020a   0x00000004   Code   RO         1768    .ARM.Collect$$rtentry$$0000000A  c_w.l(rtentry2.o)
    0x0800020e   0x00000000   Code   RO         1770    .ARM.Collect$$rtentry$$0000000C  c_w.l(rtentry2.o)
    0x0800020e   0x00000008   Code   RO         1771    .ARM.Collect$$rtentry$$0000000D  c_w.l(rtentry2.o)
    0x08000216   0x00000002   Code   RO         1895    .ARM.Collect$$rtexit$$00000000  c_w.l(rtexit.o)
    0x08000218   0x00000000   Code   RO         1928    .ARM.Collect$$rtexit$$00000002  c_w.l(rtexit2.o)
    0x08000218   0x00000004   Code   RO         1929    .ARM.Collect$$rtexit$$00000003  c_w.l(rtexit2.o)
    0x0800021c   0x00000006   Code   RO         1930    .ARM.Collect$$rtexit$$00000004  c_w.l(rtexit2.o)
    0x08000222   0x00000002   PAD
    0x08000224   0x00000000   Code   RO         1790    .emb_text           c_w.l(maybetermalloc1.o)
    0x08000224   0x00000040   Code   RO           20    .text               startup_stm32f10x_hd.o
    0x08000264   0x000000dc   Code   RO           24    .text               misc.o
    0x08000340   0x000005bc   Code   RO          137    .text               stm32f10x_flash.o
    0x080008fc   0x00000618   Code   RO          152    .text               stm32f10x_fsmc.o
    0x08000f14   0x00000358   Code   RO          167    .text               stm32f10x_gpio.o
    0x0800126c   0x000003a4   Code   RO          182    .text               stm32f10x_rcc.o
    0x08001610   0x00000408   Code   RO          214    .text               stm32f10x_usart.o
    0x08001a18   0x00000144   Code   RO          229    .text               stm32f10x_rtc.o
    0x08001b5c   0x000000c4   Code   RO          244    .text               stm32f10x_bkp.o
    0x08001c20   0x000000cc   Code   RO          259    .text               stm32f10x_pwr.o
    0x08001cec   0x000000ac   Code   RO          274    .text               stm32f10x_it.o
    0x08001d98   0x000001dc   Code   RO          359    .text               system_stm32f10x.o
    0x08001f74   0x00000050   Code   RO          377    .text               system_main.o
    0x08001fc4   0x00000014   Code   RO          452    .text               power_api.o
    0x08001fd8   0x00000088   Code   RO          470    .text               led_api.o
    0x08002060   0x0000004c   Code   RO          482    .text               beep_api.o
    0x080020ac   0x000000a8   Code   RO          494    .text               key_api.o
    0x08002154   0x00000174   Code   RO          506    .text               sram_api.o
    0x080022c8   0x00000104   Code   RO          520    .text               flash_inside_api.o
    0x080023cc   0x00000052   Code   RO          538    .text               flash_outside_api.o
    0x0800241e   0x00000002   PAD
    0x08002420   0x00000484   Code   RO          558    .text               flash_device_api.o
    0x080028a4   0x0000195c   Code   RO          599    .text               sdio_sdcard.o
    0x08004200   0x0000025c   Code   RO          624    .text               uart_api.o
    0x0800445c   0x000004c4   Code   RO          650    .text               lcd_api.o
    0x08004920   0x000023a4   Code   RO          675    .text               lcd_device_api.o
    0x08006cc4   0x00000fd8   Code   RO          707    .text               lcd_device_touch.o
    0x08007c9c   0x0000031c   Code   RO          743    .text               time_api.o
    0x08007fb8   0x00000424   Code   RO          762    .text               rtc_device_api.o
    0x080083dc   0x000000d0   Code   RO          800    .text               delay.o
    0x080084ac   0x000000ac   Code   RO          814    .text               sys.o
    0x08008558   0x00000172   Code   RO          826    .text               24cxx.o
    0x080086ca   0x00000002   PAD
    0x080086cc   0x00000278   Code   RO          838    .text               iic.o
    0x08008944   0x00000194   Code   RO          850    .text               kernel_notice.o
    0x08008ad8   0x0000024c   Code   RO          876    .text               kernel_ui_api.o
    0x08008d24   0x000000cc   Code   RO          916    .text               kernel_main.o
    0x08008df0   0x00000078   Code   RO          972    .text               thread_main.o
    0x08008e68   0x00000230   Code   RO          997    .text               malloc.o
    0x08009098   0x00000248   Code   RO         1019    .text               file_operate.o
    0x080092e0   0x00002f96   Code   RO         1045    .text               ff.o
    0x0800c276   0x00000122   Code   RO         1075    .text               diskio.o
    0x0800c398   0x000000b4   Code   RO         1091    .text               cc936.o
    0x0800c44c   0x00000190   Code   RO         1133    .text               exfuns.o
    0x0800c5dc   0x00000042   Code   RO         1153    .text               graphics_background.o
    0x0800c61e   0x000003b4   Code   RO         1186    .text               graphics_bitmap.o
    0x0800c9d2   0x00000002   PAD
    0x0800c9d4   0x00000090   Code   RO         1198    .text               graphics_font.o
    0x0800ca64   0x00000f9c   Code   RO         1218    .text               graphics_widget.o
    0x0800da00   0x000014c0   Code   RO         1237    .text               graphics_window.o
    0x0800eec0   0x00000154   Code   RO         1255    .text               kernel_expand_gsm.o
    0x0800f014   0x000000a4   Code   RO         1276    .text               system_desktop.o
    0x0800f0b8   0x000005e0   Code   RO         1297    .text               system_desktop_ui.o
    0x0800f698   0x0000007c   Code   RO         1321    .text               system_desktop_application_execute.o
    0x0800f714   0x0000198c   Code   RO         1336    .text               script_hoster.o
    0x080110a0   0x00000778   Code   RO         1367    .text               script_resolve.o
    0x08011818   0x00000b46   Code   RO         1379    .text               script_syntax.o
    0x0801235e   0x00000002   PAD
    0x08012360   0x00000780   Code   RO         1391    .text               telephone_ui.o
    0x08012ae0   0x00000d10   Code   RO         1413    .text               alarm_ui.o
    0x080137f0   0x0000005e   Code   RO         1437    .text               c_w.l(h1_alloc.o)
    0x0801384e   0x0000004e   Code   RO         1439    .text               c_w.l(h1_free.o)
    0x0801389c   0x00000048   Code   RO         1495    .text               c_w.l(llsdiv.o)
    0x080138e4   0x00000028   Code   RO         1503    .text               c_w.l(noretval__2sprintf.o)
    0x0801390c   0x00000052   Code   RO         1507    .text               c_w.l(_printf_pad.o)
    0x0801395e   0x00000052   Code   RO         1509    .text               c_w.l(_printf_str.o)
    0x080139b0   0x00000078   Code   RO         1511    .text               c_w.l(_printf_dec.o)
    0x08013a28   0x0000018c   Code   RO         1530    .text               c_w.l(__printf_flags_ss_wp.o)
    0x08013bb4   0x00000048   Code   RO         1537    .text               c_w.l(strcpy.o)
    0x08013bfc   0x0000003e   Code   RO         1539    .text               c_w.l(strlen.o)
    0x08013c3a   0x00000018   Code   RO         1541    .text               c_w.l(strcat.o)
    0x08013c52   0x0000008a   Code   RO         1543    .text               c_w.l(rt_memcpy_v6.o)
    0x08013cdc   0x00000064   Code   RO         1545    .text               c_w.l(rt_memcpy_w.o)
    0x08013d40   0x00000010   Code   RO         1547    .text               c_w.l(aeabi_memset.o)
    0x08013d50   0x00000044   Code   RO         1549    .text               c_w.l(rt_memclr.o)
    0x08013d94   0x0000004e   Code   RO         1551    .text               c_w.l(rt_memclr_w.o)
    0x08013de2   0x00000002   PAD
    0x08013de4   0x00000080   Code   RO         1553    .text               c_w.l(strcmpv7m.o)
    0x08013e64   0x00000006   Code   RO         1555    .text               c_w.l(heapauxi.o)
    0x08013e6a   0x00000002   PAD
    0x08013e6c   0x00000008   Code   RO         1647    .text               c_w.l(rt_heap_descriptor_intlibspace.o)
    0x08013e74   0x00000004   Code   RO         1649    .text               c_w.l(hguard.o)
    0x08013e78   0x0000008a   Code   RO         1651    .text               c_w.l(init_alloc.o)
    0x08013f02   0x0000000e   Code   RO         1655    .text               c_w.l(h1_init.o)
    0x08013f10   0x000000ee   Code   RO         1669    .text               c_w.l(lludivv7m.o)
    0x08013ffe   0x00000016   Code   RO         1671    .text               c_w.l(_rserrno.o)
    0x08014014   0x000000b8   Code   RO         1673    .text               c_w.l(_printf_intcommon.o)
    0x080140cc   0x00000030   Code   RO         1675    .text               c_w.l(_printf_char_common.o)
    0x080140fc   0x0000000a   Code   RO         1677    .text               c_w.l(_sputc.o)
    0x08014106   0x0000002c   Code   RO         1679    .text               c_w.l(_printf_char.o)
    0x08014132   0x00000002   PAD
    0x08014134   0x00000008   Code   RO         1761    .text               c_w.l(libspace.o)
    0x0801413c   0x00000008   Code   RO         1786    .text               c_w.l(rt_errno_addr_intlibspace.o)
    0x08014144   0x00000034   Code   RO         1792    .text               c_w.l(h1_extend.o)
    0x08014178   0x0000000e   Code   RO         1812    .text               c_w.l(defsig_rtmem_outer.o)
    0x08014186   0x00000002   Code   RO         1830    .text               c_w.l(use_no_semi.o)
    0x08014188   0x00000000   Code   RO         1832    .text               c_w.l(indicate_semi.o)
    0x08014188   0x0000004a   Code   RO         1833    .text               c_w.l(sys_stackheap_outer.o)
    0x080141d2   0x0000000c   Code   RO         1854    .text               c_w.l(exit.o)
    0x080141de   0x0000000a   Code   RO         1856    .text               c_w.l(defsig_exit.o)
    0x080141e8   0x00000050   Code   RO         1862    .text               c_w.l(defsig_rtmem_inner.o)
    0x08014238   0x0000000c   Code   RO         1893    .text               c_w.l(sys_exit.o)
    0x08014244   0x00000032   Code   RO         1913    .text               c_w.l(defsig_general.o)
    0x08014276   0x0000000e   Code   RO         1925    .text               c_w.l(sys_wrch.o)
    0x08014284   0x00000028   Code   RO         1754    i.__ARM_fpclassify  m_ws.l(fpclassify.o)
    0x080142ac   0x000000aa   Code   RO         1756    i.__kernel_poly     m_ws.l(poly.o)
    0x08014356   0x00000002   PAD
    0x08014358   0x00000010   Code   RO         1752    i.__mathlib_dbl_underflow  m_ws.l(dunder.o)
    0x08014368   0x0000000e   Code   RO         1523    i._is_digit         c_w.l(__printf_wp.o)
    0x08014376   0x00000002   PAD
    0x08014378   0x000009e0   Code   RO         1624    i.pow               m_ws.l(pow.o)
    0x08014d58   0x0000004c   Code   RO         1634    i.sqrt              m_ws.l(sqrt.o)
    0x08014da4   0x00000150   Code   RO         1559    x$fpl$dadd          fz_ws.l(daddsub_clz.o)
    0x08014ef4   0x00000010   Code   RO         1821    x$fpl$dcheck1       fz_ws.l(dcheck1.o)
    0x08014f04   0x00000018   Code   RO         1735    x$fpl$dcmpinf       fz_ws.l(dcmpi.o)
    0x08014f1c   0x000002b0   Code   RO         1566    x$fpl$ddiv          fz_ws.l(ddiv.o)
    0x080151cc   0x0000005e   Code   RO         1569    x$fpl$dfix          fz_ws.l(dfix.o)
    0x0801522a   0x00000002   PAD
    0x0801522c   0x0000005a   Code   RO         1573    x$fpl$dfixu         fz_ws.l(dfixu.o)
    0x08015286   0x0000002e   Code   RO         1578    x$fpl$dflt          fz_ws.l(dflt_clz.o)
    0x080152b4   0x00000026   Code   RO         1577    x$fpl$dfltu         fz_ws.l(dflt_clz.o)
    0x080152da   0x00000002   PAD
    0x080152dc   0x00000078   Code   RO         1583    x$fpl$dleqf         fz_ws.l(dleqf.o)
    0x08015354   0x00000154   Code   RO         1585    x$fpl$dmul          fz_ws.l(dmul.o)
    0x080154a8   0x0000009c   Code   RO         1737    x$fpl$dnaninf       fz_ws.l(dnaninf.o)
    0x08015544   0x0000000c   Code   RO         1739    x$fpl$dretinf       fz_ws.l(dretinf.o)
    0x08015550   0x0000006c   Code   RO         1587    x$fpl$drleqf        fz_ws.l(drleqf.o)
    0x080155bc   0x00000016   Code   RO         1560    x$fpl$drsb          fz_ws.l(daddsub_clz.o)
    0x080155d2   0x00000002   PAD
    0x080155d4   0x000001cc   Code   RO         1741    x$fpl$dsqrt         fz_ws.l(dsqrt_noumaal.o)
    0x080157a0   0x000001d4   Code   RO         1561    x$fpl$dsub          fz_ws.l(daddsub_clz.o)
    0x08015974   0x00000056   Code   RO         1589    x$fpl$f2d           fz_ws.l(f2d.o)
    0x080159ca   0x00000002   PAD
    0x080159cc   0x000000c4   Code   RO         1591    x$fpl$fadd          fz_ws.l(faddsub_clz.o)
    0x08015a90   0x00000018   Code   RO         1743    x$fpl$fcmpinf       fz_ws.l(fcmpi.o)
    0x08015aa8   0x00000184   Code   RO         1598    x$fpl$fdiv          fz_ws.l(fdiv.o)
    0x08015c2c   0x00000068   Code   RO         1601    x$fpl$feqf          fz_ws.l(feqf.o)
    0x08015c94   0x00000036   Code   RO         1603    x$fpl$ffix          fz_ws.l(ffix.o)
    0x08015cca   0x00000002   PAD
    0x08015ccc   0x0000003e   Code   RO         1607    x$fpl$ffixu         fz_ws.l(ffixu.o)
    0x08015d0a   0x00000002   PAD
    0x08015d0c   0x00000030   Code   RO         1612    x$fpl$fflt          fz_ws.l(fflt_clz.o)
    0x08015d3c   0x00000026   Code   RO         1611    x$fpl$ffltu         fz_ws.l(fflt_clz.o)
    0x08015d62   0x00000002   PAD
    0x08015d64   0x00000068   Code   RO         1617    x$fpl$fleqf         fz_ws.l(fleqf.o)
    0x08015dcc   0x00000102   Code   RO         1619    x$fpl$fmul          fz_ws.l(fmul.o)
    0x08015ece   0x0000008c   Code   RO         1745    x$fpl$fnaninf       fz_ws.l(fnaninf.o)
    0x08015f5a   0x0000000a   Code   RO         1747    x$fpl$fretinf       fz_ws.l(fretinf.o)
    0x08015f64   0x00000062   Code   RO         1621    x$fpl$frleqf        fz_ws.l(frleqf.o)
    0x08015fc6   0x00000002   PAD
    0x08015fc8   0x000000ea   Code   RO         1593    x$fpl$fsub          fz_ws.l(faddsub_clz.o)
    0x080160b2   0x00000064   Code   RO         1891    x$fpl$retnan        fz_ws.l(retnan.o)
    0x08016116   0x0000005c   Code   RO         1749    x$fpl$scalbn        fz_ws.l(scalbn.o)
    0x08016172   0x00000030   Code   RO         1923    x$fpl$trapveneer    fz_ws.l(trapv.o)
    0x080161a2   0x00000000   Code   RO         1751    x$fpl$usenofp       fz_ws.l(usenofp.o)
    0x080161a2   0x00000002   PAD
    0x080161a4   0x00000054   Data   RO          275    .constdata          stm32f10x_it.o
    0x080161f8   0x00000a64   Data   RO          677    .constdata          lcd_device_api.o
    0x08016c5c   0x00000018   Data   RO          764    .constdata          rtc_device_api.o
    0x08016c74   0x00007566   Data   RO          877    .constdata          kernel_ui_api.o
    0x0801e1da   0x00000002   PAD
    0x0801e1dc   0x00000079   Data   RO          917    .constdata          kernel_main.o
    0x0801e255   0x00000003   PAD
    0x0801e258   0x00000018   Data   RO         1001    .constdata          malloc.o
    0x0801e270   0x0000003a   Data   RO         1046    .constdata          ff.o
    0x0801e2aa   0x0002acc8   Data   RO         1092    .constdata          cc936.o
    0x08048f72   0x000012f6   Data   RO         1239    .constdata          graphics_window.o
    0x0804a268   0x0000eace   Data   RO         1299    .constdata          system_desktop_ui.o
    0x08058d36   0x00000011   Data   RO         1531    .constdata          c_w.l(__printf_flags_ss_wp.o)
    0x08058d47   0x00000001   PAD
    0x08058d48   0x00000088   Data   RO         1625    .constdata          m_ws.l(pow.o)
    0x08058dd0   0x00000008   Data   RO         1758    .constdata          m_ws.l(qnan.o)
    0x08058dd8   0x00000079   Data   RO          708    .conststring        lcd_device_touch.o
    0x08058e51   0x00000058   Data   RO         1135    .conststring        exfuns.o
    0x08058ea9   0x00000003   PAD
    0x08058eac   0x00000020   Data   RO         1963    Region$$Table       anon$$obj.o


    Execution Region RW_IRAM1 (Base: 0x20000000, Size: 0x0000e6d8, Max: 0x00010000, ABSOLUTE, COMPRESSED[0x000000c8])

    Base Addr    Size         Type   Attr      Idx    E Section Name        Object

    0x20000000   0x00000014   Data   RW          183    .data               stm32f10x_rcc.o
    0x20000014   0x00000014   Data   RW          360    .data               system_stm32f10x.o
    0x20000028   0x00000001   Data   RW          453    .data               power_api.o
    0x20000029   0x00000003   PAD
    0x2000002c   0x00000004   Data   RW          560    .data               flash_device_api.o
    0x20000030   0x0000000c   Data   RW          601    .data               sdio_sdcard.o
    0x2000003c   0x00000004   Data   RW          626    .data               uart_api.o
    0x20000040   0x00000344   Data   RW          651    .data               lcd_api.o
    0x20000384   0x00000004   Data   RW          678    .data               lcd_device_api.o
    0x20000388   0x00000030   Data   RW          709    .data               lcd_device_touch.o
    0x200003b8   0x00000006   Data   RW          765    .data               rtc_device_api.o
    0x200003be   0x00000004   Data   RW          801    .data               delay.o
    0x200003c2   0x00000002   PAD
    0x200003c4   0x0000000c   Data   RW          878    .data               kernel_ui_api.o
    0x200003d0   0x00000001   Data   RW          973    .data               thread_main.o
    0x200003d1   0x00000003   PAD
    0x200003d4   0x0000001c   Data   RW         1002    .data               malloc.o
    0x200003f0   0x0000000a   Data   RW         1047    .data               ff.o
    0x200003fa   0x00000002   PAD
    0x200003fc   0x00000154   Data   RW         1136    .data               exfuns.o
    0x20000550   0x00000020   Data   RW         1240    .data               graphics_window.o
    0x20000570   0x00000004   Data   RW         1277    .data               system_desktop.o
    0x20000574   0x00000004   Data   RW         1300    .data               system_desktop_ui.o
    0x20000578   0x00000018   Data   RW         1338    .data               script_hoster.o
    0x20000590   0x00000010   Data   RW         1393    .data               telephone_ui.o
    0x200005a0   0x00000048   Data   RW         1415    .data               alarm_ui.o
    0x200005e8   0x00000018   Zero   RW          507    .bss                sram_api.o
    0x20000600   0x00001000   Zero   RW          559    .bss                flash_device_api.o
    0x20001600   0x00000278   Zero   RW          600    .bss                sdio_sdcard.o
    0x20001878   0x00000100   Zero   RW          625    .bss                uart_api.o
    0x20001978   0x0000000a   Zero   RW          676    .bss                lcd_device_api.o
    0x20001982   0x00000002   PAD
    0x20001984   0x00000040   Zero   RW          744    .bss                time_api.o
    0x200019c4   0x0000000a   Zero   RW          763    .bss                rtc_device_api.o
    0x200019ce   0x00000002   PAD
    0x200019d0   0x000000a4   Zero   RW          851    .bss                kernel_notice.o
    0x20001a74   0x0000aa00   Zero   RW         1000    .bss                malloc.o
    0x2000c474   0x00001314   Zero   RW         1238    .bss                graphics_window.o
    0x2000d788   0x00000014   Zero   RW         1256    .bss                kernel_expand_gsm.o
    0x2000d79c   0x000000b0   Zero   RW         1298    .bss                system_desktop_ui.o
    0x2000d84c   0x00000804   Zero   RW         1337    .bss                script_hoster.o
    0x2000e050   0x00000014   Zero   RW         1392    .bss                telephone_ui.o
    0x2000e064   0x00000012   Zero   RW         1414    .bss                alarm_ui.o
    0x2000e076   0x00000002   PAD
    0x2000e078   0x00000060   Zero   RW         1762    .bss                c_w.l(libspace.o)
    0x2000e0d8   0x00000200   Zero   RW           18    HEAP                startup_stm32f10x_hd.o
    0x2000e2d8   0x00000400   Zero   RW           17    STACK               startup_stm32f10x_hd.o



  Load Region LR$$.ARM.__AT_0x68000000 (Base: 0x68000000, Size: 0x00000000, Max: 0x00032000, ABSOLUTE)

    Execution Region ER$$.ARM.__AT_0x68000000 (Base: 0x68000000, Size: 0x00032000, Max: 0x00032000, ABSOLUTE, UNINIT)

    Base Addr    Size         Type   Attr      Idx    E Section Name        Object

    0x68000000   0x00032000   Zero   RW          998    .ARM.__AT_0x68000000  malloc.o



  Load Region LR$$.ARM.__AT_0x68032000 (Base: 0x68032000, Size: 0x00000000, Max: 0x00003200, ABSOLUTE)

    Execution Region ER$$.ARM.__AT_0x68032000 (Base: 0x68032000, Size: 0x00003200, Max: 0x00003200, ABSOLUTE, UNINIT)

    Base Addr    Size         Type   Attr      Idx    E Section Name        Object

    0x68032000   0x00003200   Zero   RW          999    .ARM.__AT_0x68032000  malloc.o


==============================================================================

Image component sizes


      Code (inc. data)   RO Data    RW Data    ZI Data      Debug   Object Name

       370          0          0          0          0       2401   24cxx.o
      3344        544          0         72         18      10917   alarm_ui.o
        76          4          0          0          0        645   beep_api.o
       180         18     175304          0          0       2181   cc936.o
         0          0          0          0          0       4244   core_cm3.o
       208         18          0          4          0        891   delay.o
       290          0          0          0          0       2885   diskio.o
       400         22         88        340          0       2524   exfuns.o
     12182        120         58         10          0      35877   ff.o
       584         12          0          0          0       7601   file_operate.o
      1156         40          0          4       4096       5045   flash_device_api.o
       260          6          0          0          0       1694   flash_inside_api.o
        82          0          0          0          0       1497   flash_outside_api.o
        66          0          0          0          0       4379   graphics_background.o
       948          0          0          0          0       3651   graphics_bitmap.o
       144          6          0          0          0       1119   graphics_font.o
      3996         44          0          0          0       8561   graphics_widget.o
      5312        278       4854         32       4884      10273   graphics_window.o
       632         26          0          0          0       1800   iic.o
       340         86          0          0         20       2444   kernel_expand_gsm.o
       204         64        121          0          0       4758   kernel_main.o
       404          4          0          0        164       3363   kernel_notice.o
       588         30      30054         12          0       4941   kernel_ui_api.o
       168         16          0          0          0        704   key_api.o
      1220         54          0        836          0       6357   lcd_api.o
      9124        122       2660          4         10      15812   lcd_device_api.o
      4056        264        121         48          0       6353   lcd_device_touch.o
       136          8          0          0          0        931   led_api.o
       560         18         24         28     261120       4420   malloc.o
       220         20          0          0          0     215385   misc.o
        20          4          0          1          0        693   power_api.o
      1060         64         24          6         10       5245   rtc_device_api.o
      6540        222          0         24       2052      13915   script_hoster.o
      1912          8          0          0          0       7980   script_resolve.o
      2886         88          0          0          0       6418   script_syntax.o
      6492        248          0         12        632      21676   sdio_sdcard.o
       372         22          0          0         24       2831   sram_api.o
        64         26        304          0       1536        852   startup_stm32f10x_hd.o
       196          8          0          0          0       3468   stm32f10x_bkp.o
      1468         34          0          0          0      14462   stm32f10x_flash.o
      1560         54          0          0          0      13351   stm32f10x_fsmc.o
       856         40          0          0          0      14097   stm32f10x_gpio.o
       172        120         84          0          0      25959   stm32f10x_it.o
       204         16          0          0          0       1907   stm32f10x_pwr.o
       932         44          0         20          0      17620   stm32f10x_rcc.o
       324          4          0          0          0       2662   stm32f10x_rtc.o
      1032         22          0          0          0      14500   stm32f10x_usart.o
       172         18          0          0          0       1328   sys.o
       164        110          0          4          0        699   system_desktop.o
       124         14          0          0          0       2023   system_desktop_application_execute.o
      1504         94      60110          4        176       5579   system_desktop_ui.o
        80          0          0          0          0       2287   system_main.o
       476         36          0         20          0       1683   system_stm32f10x.o
      1920        224          0         16         20       7394   telephone_ui.o
       120          6          0          1          0        841   thread_main.o
       796         10          0          0         64       2394   time_api.o
       604         26          0          4        256       2654   uart_api.o

    ----------------------------------------------------------------------
     79308       3386     273846       1512     275088     568171   Object Totals
         0          0         32          0          0          0   (incl. Generated)
         8          0          8         10          6          0   (incl. Padding)

    ----------------------------------------------------------------------

      Code (inc. data)   RO Data    RW Data    ZI Data      Debug   Library Member Name

        90          0          0          0          0          0   __dczerorl2.o
         8          0          0          0          0         68   __main.o
       396          6         17          0          0         92   __printf_flags_ss_wp.o
        14          0          0          0          0         68   __printf_wp.o
        52          8          0          0          0          0   __scatter.o
        28          0          0          0          0          0   __scatter_zi.o
        44          0          0          0          0        108   _printf_char.o
        48          6          0          0          0         96   _printf_char_common.o
         6          0          0          0          0          0   _printf_d.o
       120         18          0          0          0         92   _printf_dec.o
       184          0          0          0          0         88   _printf_intcommon.o
        82          0          0          0          0        108   _printf_pad.o
         0          0          0          0          0          0   _printf_percent.o
         4          0          0          0          0          0   _printf_percent_end.o
         6          0          0          0          0          0   _printf_s.o
        82          0          0          0          0         80   _printf_str.o
        22          0          0          0          0        100   _rserrno.o
        10          0          0          0          0         68   _sputc.o
        16          0          0          0          0         68   aeabi_memset.o
        10          0          0          0          0         68   defsig_exit.o
        50          0          0          0          0         88   defsig_general.o
        80         58          0          0          0         76   defsig_rtmem_inner.o
        14          0          0          0          0         80   defsig_rtmem_outer.o
        12          0          0          0          0         72   exit.o
        94          0          0          0          0         80   h1_alloc.o
        52          0          0          0          0         68   h1_extend.o
        78          0          0          0          0         80   h1_free.o
        14          0          0          0          0         84   h1_init.o
         6          0          0          0          0        152   heapauxi.o
         4          0          0          0          0        136   hguard.o
         0          0          0          0          0          0   indicate_semi.o
       138          0          0          0          0        168   init_alloc.o
         2          0          0          0          0          0   libinit.o
        10          0          0          0          0          0   libinit2.o
         2          0          0          0          0          0   libshutdown.o
         2          0          0          0          0          0   libshutdown2.o
         8          4          0          0         96         68   libspace.o
        72          0          0          0          0         76   llsdiv.o
       238          0          0          0          0        100   lludivv7m.o
         0          0          0          0          0          0   maybetermalloc1.o
        40          6          0          0          0         84   noretval__2sprintf.o
         8          4          0          0          0         68   rt_errno_addr_intlibspace.o
         8          4          0          0          0         68   rt_heap_descriptor_intlibspace.o
        68          0          0          0          0         68   rt_memclr.o
        78          0          0          0          0         80   rt_memclr_w.o
       138          0          0          0          0         68   rt_memcpy_v6.o
       100          0          0          0          0         80   rt_memcpy_w.o
         0          0          0          0          0          0   rtentry.o
        12          0          0          0          0          0   rtentry2.o
         6          0          0          0          0          0   rtentry4.o
         2          0          0          0          0          0   rtexit.o
        10          0          0          0          0          0   rtexit2.o
        24          0          0          0          0         68   strcat.o
       128          0          0          0          0         68   strcmpv7m.o
        72          0          0          0          0         80   strcpy.o
        62          0          0          0          0         76   strlen.o
        12          4          0          0          0         68   sys_exit.o
        74          0          0          0          0         80   sys_stackheap_outer.o
        14          0          0          0          0         76   sys_wrch.o
         2          0          0          0          0         68   use_no_semi.o
       826         16          0          0          0        348   daddsub_clz.o
        16          4          0          0          0         68   dcheck1.o
        24          0          0          0          0         68   dcmpi.o
       688        140          0          0          0        208   ddiv.o
        94          4          0          0          0         92   dfix.o
        90          4          0          0          0         92   dfixu.o
        84          0          0          0          0        136   dflt_clz.o
       120          4          0          0          0         92   dleqf.o
       340         12          0          0          0        104   dmul.o
       156          4          0          0          0         92   dnaninf.o
        12          0          0          0          0         68   dretinf.o
       108          0          0          0          0         80   drleqf.o
       460         56          0          0          0        120   dsqrt_noumaal.o
        86          4          0          0          0         84   f2d.o
       430          8          0          0          0        168   faddsub_clz.o
        24          0          0          0          0         68   fcmpi.o
       388         76          0          0          0         96   fdiv.o
       104          4          0          0          0         84   feqf.o
        54          4          0          0          0         84   ffix.o
        62          4          0          0          0         84   ffixu.o
        86          0          0          0          0        136   fflt_clz.o
       104          4          0          0          0         84   fleqf.o
       258          4          0          0          0         84   fmul.o
       140          4          0          0          0         84   fnaninf.o
        10          0          0          0          0         68   fretinf.o
        98          0          0          0          0         68   frleqf.o
       100          0          0          0          0         68   retnan.o
        92          0          0          0          0         68   scalbn.o
        48          0          0          0          0         68   trapv.o
         0          0          0          0          0          0   usenofp.o
        16          6          0          0          0         68   dunder.o
        40          0          0          0          0         68   fpclassify.o
       170          0          0          0          0         96   poly.o
      2528        190        136          0          0        332   pow.o
         0          0          8          0          0          0   qnan.o
        76          0          0          0          0         84   sqrt.o

    ----------------------------------------------------------------------
     10920        670        162          0         96       7144   Library Totals
        32          0          1          0          0          0   (incl. Padding)

    ----------------------------------------------------------------------

      Code (inc. data)   RO Data    RW Data    ZI Data      Debug   Library Name

      2956        118         17          0         96       3532   c_w.l
      5102        356          0          0          0       2964   fz_ws.l
      2830        196        144          0          0        648   m_ws.l

    ----------------------------------------------------------------------
     10920        670        162          0         96       7144   Library Totals

    ----------------------------------------------------------------------

==============================================================================


      Code (inc. data)   RO Data    RW Data    ZI Data      Debug   

     90228       4056     274008       1512     275184     565955   Grand Totals
     90228       4056     274008        200     275184     565955   ELF Image Totals (compressed)
     90228       4056     274008        200          0          0   ROM Totals

==============================================================================

    Total RO  Size (Code + RO Data)               364236 ( 355.70kB)
    Total RW  Size (RW Data + ZI Data)            276696 ( 270.21kB)
    Total ROM Size (Code + RO Data + RW Data)     364436 ( 355.89kB)

==============================================================================

